
BatteryLampInverterController.elf:     file format elf32-avr

Sections:
Idx Name          Size      VMA       LMA       File off  Algn
  0 .text         00000a30  00000000  00000000  00000094  2**1
                  CONTENTS, ALLOC, LOAD, READONLY, CODE
  1 .data         0000000a  00800060  00000a30  00000ac4  2**0
                  CONTENTS, ALLOC, LOAD, DATA
  2 .bss          0000000c  0080006a  0080006a  00000ace  2**0
                  ALLOC
  3 .comment      00000030  00000000  00000000  00000ace  2**0
                  CONTENTS, READONLY
  4 .note.gnu.avr.deviceinfo 0000003c  00000000  00000000  00000b00  2**2
                  CONTENTS, READONLY
  5 .debug_info   00000420  00000000  00000000  00000b3c  2**0
                  CONTENTS, READONLY, DEBUGGING
  6 .debug_abbrev 000003e8  00000000  00000000  00000f5c  2**0
                  CONTENTS, READONLY, DEBUGGING
  7 .debug_line   000000f2  00000000  00000000  00001344  2**0
                  CONTENTS, READONLY, DEBUGGING
  8 .debug_str    00000169  00000000  00000000  00001436  2**0
                  CONTENTS, READONLY, DEBUGGING

Disassembly of section .text:

00000000 <__vectors>:
   0:	5c c0       	rjmp	.+184    	; 0xba <__ctors_end>
   2:	80 c0       	rjmp	.+256    	; 0x104 <__bad_interrupt>
   4:	7f c0       	rjmp	.+254    	; 0x104 <__bad_interrupt>
   6:	7e c0       	rjmp	.+252    	; 0x104 <__bad_interrupt>
   8:	7d c0       	rjmp	.+250    	; 0x104 <__bad_interrupt>
   a:	7c c0       	rjmp	.+248    	; 0x104 <__bad_interrupt>
   c:	7b c0       	rjmp	.+246    	; 0x104 <__bad_interrupt>
   e:	7a c0       	rjmp	.+244    	; 0x104 <__bad_interrupt>
  10:	79 c0       	rjmp	.+242    	; 0x104 <__bad_interrupt>
  12:	78 c0       	rjmp	.+240    	; 0x104 <__bad_interrupt>
  14:	77 c0       	rjmp	.+238    	; 0x104 <__bad_interrupt>
  16:	76 c0       	rjmp	.+236    	; 0x104 <__bad_interrupt>
  18:	75 c0       	rjmp	.+234    	; 0x104 <__bad_interrupt>
  1a:	74 c0       	rjmp	.+232    	; 0x104 <__bad_interrupt>
  1c:	73 c0       	rjmp	.+230    	; 0x104 <__bad_interrupt>

0000001e <LedFlashingTable>:
  1e:	00 00 00 01 00 00 01 01 00 11 11 11 13 11 11 13     ................
  2e:	13 11 33 33 33 37 33 33 37 37 33 77 77 77 7f 77     ..333733773www.w
  3e:	77 7f 7f 77 ff ff ff                                w..w...

00000045 <VoltageLevelsTable>:
  45:	10 27 5d 28 aa 29 f8 2a c0 2b 88 2c 50 2d 18 2e     .'](.).*.+.,P-..
  55:	e0 2e a8 2f 70 30 38 31                             .../p081

0000005d <TempSensorTable>:
  5d:	00 00 ff 98 00 87 ac 00 82 c3 00 7d de 00 78 f9     ...........}..x.
  6d:	00 73 1d 01 6e 3d 01 69 61 01 64 88 01 5f b3 01     .s..n=.ia.d.._..
  7d:	5a de 01 55 0d 02 50 3c 02 4b 6f 02 46 98 02 41     Z..U..P<.Ko.F..A
  8d:	c5 02 3c ef 02 37 19 03 32 3b 03 2d 5c 03 28 78     ..<..7..2;.-\.(x
  9d:	03 23 93 03 1e ad 03 19 be 03 14 cd 03 0f d8 03     .#..............
  ad:	0a e3 03 05 e9 03 01 ff 03 00 00                    ...........

000000b8 <__ctors_start>:
  b8:	fc 01       	movw	r30, r24

000000ba <__ctors_end>:
  ba:	11 24       	eor	r1, r1
  bc:	1f be       	out	0x3f, r1	; 63
  be:	cf e5       	ldi	r28, 0x5F	; 95
  c0:	d1 e0       	ldi	r29, 0x01	; 1
  c2:	de bf       	out	0x3e, r29	; 62
  c4:	cd bf       	out	0x3d, r28	; 61

000000c6 <__do_copy_data>:
  c6:	10 e0       	ldi	r17, 0x00	; 0
  c8:	a0 e6       	ldi	r26, 0x60	; 96
  ca:	b0 e0       	ldi	r27, 0x00	; 0
  cc:	e0 e3       	ldi	r30, 0x30	; 48
  ce:	fa e0       	ldi	r31, 0x0A	; 10
  d0:	02 c0       	rjmp	.+4      	; 0xd6 <__do_copy_data+0x10>
  d2:	05 90       	lpm	r0, Z+
  d4:	0d 92       	st	X+, r0
  d6:	aa 36       	cpi	r26, 0x6A	; 106
  d8:	b1 07       	cpc	r27, r17
  da:	d9 f7       	brne	.-10     	; 0xd2 <__do_copy_data+0xc>

000000dc <__do_clear_bss>:
  dc:	20 e0       	ldi	r18, 0x00	; 0
  de:	aa e6       	ldi	r26, 0x6A	; 106
  e0:	b0 e0       	ldi	r27, 0x00	; 0
  e2:	01 c0       	rjmp	.+2      	; 0xe6 <.do_clear_bss_start>

000000e4 <.do_clear_bss_loop>:
  e4:	1d 92       	st	X+, r1

000000e6 <.do_clear_bss_start>:
  e6:	a6 37       	cpi	r26, 0x76	; 118
  e8:	b2 07       	cpc	r27, r18
  ea:	e1 f7       	brne	.-8      	; 0xe4 <.do_clear_bss_loop>

000000ec <__do_global_ctors>:
  ec:	10 e0       	ldi	r17, 0x00	; 0
  ee:	cd e5       	ldi	r28, 0x5D	; 93
  f0:	d0 e0       	ldi	r29, 0x00	; 0
  f2:	03 c0       	rjmp	.+6      	; 0xfa <__do_global_ctors+0xe>
  f4:	21 97       	sbiw	r28, 0x01	; 1
  f6:	fe 01       	movw	r30, r28
  f8:	93 d4       	rcall	.+2342   	; 0xa20 <__tablejump2__>
  fa:	cc 35       	cpi	r28, 0x5C	; 92
  fc:	d1 07       	cpc	r29, r17
  fe:	d1 f7       	brne	.-12     	; 0xf4 <__do_global_ctors+0x8>
 100:	63 d0       	rcall	.+198    	; 0x1c8 <main>
 102:	94 c4       	rjmp	.+2344   	; 0xa2c <_exit>

00000104 <__bad_interrupt>:
 104:	7d cf       	rjmp	.-262    	; 0x0 <__vectors>

00000106 <_ZN7LedLamp11IndicatorIF6UpdateEv>:
 106:	fc 01       	movw	r30, r24
 108:	92 81       	ldd	r25, Z+2	; 0x02
 10a:	9e 31       	cpi	r25, 0x1E	; 30
 10c:	10 f4       	brcc	.+4      	; 0x112 <_ZN7LedLamp11IndicatorIF6UpdateEv+0xc>
 10e:	9f 5f       	subi	r25, 0xFF	; 255
 110:	01 c0       	rjmp	.+2      	; 0x114 <_ZN7LedLamp11IndicatorIF6UpdateEv+0xe>
 112:	90 e0       	ldi	r25, 0x00	; 0
 114:	92 83       	std	Z+2, r25	; 0x02
 116:	08 95       	ret

00000118 <_ZNK7LedLamp16VoltageIndicator13GetTableValueEh>:
 118:	86 2f       	mov	r24, r22
 11a:	f5 c3       	rjmp	.+2026   	; 0x906 <GetVoltageLevelTableValue>

0000011c <_ZNK7LedLamp16VoltageIndicator12GetTableSizeEv>:
 11c:	f2 c3       	rjmp	.+2020   	; 0x902 <GetVoltageLevelsTableSize>

0000011e <_Z8IsKeysONv>:
 11e:	cf 93       	push	r28
 120:	df 93       	push	r29
 122:	2b d3       	rcall	.+1622   	; 0x77a <_Z22SenseBatteryVoltageOffv>
 124:	e9 d3       	rcall	.+2002   	; 0x8f8 <_Z12ShiftRegPushv>
 126:	83 e0       	ldi	r24, 0x03	; 3
 128:	90 e0       	ldi	r25, 0x00	; 0
 12a:	81 d1       	rcall	.+770    	; 0x42e <_Z12DelayMiliSecj>
 12c:	81 e0       	ldi	r24, 0x01	; 1
 12e:	90 e0       	ldi	r25, 0x00	; 0
 130:	be d1       	rcall	.+892    	; 0x4ae <GetVoltageAdcValueInMv>
 132:	ec 01       	movw	r28, r24
 134:	18 d3       	rcall	.+1584   	; 0x766 <_Z21SenseBatteryVoltageOnv>
 136:	e0 d3       	rcall	.+1984   	; 0x8f8 <_Z12ShiftRegPushv>
 138:	83 e0       	ldi	r24, 0x03	; 3
 13a:	90 e0       	ldi	r25, 0x00	; 0
 13c:	78 d1       	rcall	.+752    	; 0x42e <_Z12DelayMiliSecj>
 13e:	81 e0       	ldi	r24, 0x01	; 1
 140:	c9 3e       	cpi	r28, 0xE9	; 233
 142:	d3 40       	sbci	r29, 0x03	; 3
 144:	08 f4       	brcc	.+2      	; 0x148 <_Z8IsKeysONv+0x2a>
 146:	80 e0       	ldi	r24, 0x00	; 0
 148:	df 91       	pop	r29
 14a:	cf 91       	pop	r28
 14c:	08 95       	ret

0000014e <_Z20StartTimer1DelayInMsj>:
 14e:	81 15       	cp	r24, r1
 150:	22 e0       	ldi	r18, 0x02	; 2
 152:	92 07       	cpc	r25, r18
 154:	20 f4       	brcc	.+8      	; 0x15e <_Z20StartTimer1DelayInMsj+0x10>
 156:	96 95       	lsr	r25
 158:	87 95       	ror	r24
 15a:	80 95       	com	r24
 15c:	01 c0       	rjmp	.+2      	; 0x160 <__stack+0x1>
 15e:	80 e0       	ldi	r24, 0x00	; 0
 160:	9f e0       	ldi	r25, 0x0F	; 15
 162:	90 bf       	out	0x30, r25	; 48
 164:	9c b5       	in	r25, 0x2c	; 44
 166:	93 78       	andi	r25, 0x83	; 131
 168:	9c bd       	out	0x2c, r25	; 44
 16a:	1e bc       	out	0x2e, r1	; 46
 16c:	1b bc       	out	0x2b, r1	; 43
 16e:	9f ef       	ldi	r25, 0xFF	; 255
 170:	9d bd       	out	0x2d, r25	; 45
 172:	97 b5       	in	r25, 0x27	; 39
 174:	9b 7f       	andi	r25, 0xFB	; 251
 176:	97 bd       	out	0x27, r25	; 39
 178:	99 b7       	in	r25, 0x39	; 57
 17a:	9f 7b       	andi	r25, 0xBF	; 191
 17c:	99 bf       	out	0x39, r25	; 57
 17e:	8f bd       	out	0x2f, r24	; 47
 180:	88 b7       	in	r24, 0x38	; 56
 182:	84 60       	ori	r24, 0x04	; 4
 184:	88 bf       	out	0x38, r24	; 56
 186:	08 95       	ret

00000188 <_Z24IsTimer1DelayInMsElapsedv>:
 188:	98 b7       	in	r25, 0x38	; 56
 18a:	89 2f       	mov	r24, r25
 18c:	84 70       	andi	r24, 0x04	; 4
 18e:	92 ff       	sbrs	r25, 2
 190:	04 c0       	rjmp	.+8      	; 0x19a <_Z24IsTimer1DelayInMsElapsedv+0x12>
 192:	88 b7       	in	r24, 0x38	; 56
 194:	84 60       	ori	r24, 0x04	; 4
 196:	88 bf       	out	0x38, r24	; 56
 198:	81 e0       	ldi	r24, 0x01	; 1
 19a:	08 95       	ret

0000019c <_Z26WaitTimer1DelayInMsElapsedv>:
 19c:	f5 df       	rcall	.-22     	; 0x188 <_Z24IsTimer1DelayInMsElapsedv>
 19e:	88 23       	and	r24, r24
 1a0:	e9 f3       	breq	.-6      	; 0x19c <_Z26WaitTimer1DelayInMsElapsedv>
 1a2:	08 95       	ret

000001a4 <_Z11StartUpInitv>:
 1a4:	a1 d3       	rcall	.+1858   	; 0x8e8 <_Z12ShiftRegInitv>
 1a6:	7b d3       	rcall	.+1782   	; 0x89e <_Z10AllLedsOffv>
 1a8:	b6 d2       	rcall	.+1388   	; 0x716 <_Z9BuzzerOffv>
 1aa:	c9 d2       	rcall	.+1426   	; 0x73e <_Z19AddChargeVoltageOffv>
 1ac:	d2 d2       	rcall	.+1444   	; 0x752 <_Z12ConverterOffv>
 1ae:	db d2       	rcall	.+1462   	; 0x766 <_Z21SenseBatteryVoltageOnv>
 1b0:	a3 c3       	rjmp	.+1862   	; 0x8f8 <_Z12ShiftRegPushv>

000001b2 <_Z4Beepj>:
 1b2:	cf 93       	push	r28
 1b4:	df 93       	push	r29
 1b6:	ec 01       	movw	r28, r24
 1b8:	a4 d2       	rcall	.+1352   	; 0x702 <_Z8BuzzerOnv>
 1ba:	9e d3       	rcall	.+1852   	; 0x8f8 <_Z12ShiftRegPushv>
 1bc:	ce 01       	movw	r24, r28
 1be:	37 d1       	rcall	.+622    	; 0x42e <_Z12DelayMiliSecj>
 1c0:	aa d2       	rcall	.+1364   	; 0x716 <_Z9BuzzerOffv>
 1c2:	df 91       	pop	r29
 1c4:	cf 91       	pop	r28
 1c6:	98 c3       	rjmp	.+1840   	; 0x8f8 <_Z12ShiftRegPushv>

000001c8 <main>:
 1c8:	cf 93       	push	r28
 1ca:	df 93       	push	r29
 1cc:	00 d0       	rcall	.+0      	; 0x1ce <main+0x6>
 1ce:	00 d0       	rcall	.+0      	; 0x1d0 <main+0x8>
 1d0:	1f 92       	push	r1
 1d2:	cd b7       	in	r28, 0x3d	; 61
 1d4:	de b7       	in	r29, 0x3e	; 62
 1d6:	f8 94       	cli
 1d8:	e5 df       	rcall	.-54     	; 0x1a4 <_Z11StartUpInitv>
 1da:	84 e6       	ldi	r24, 0x64	; 100
 1dc:	90 e0       	ldi	r25, 0x00	; 0
 1de:	e9 df       	rcall	.-46     	; 0x1b2 <_Z4Beepj>
 1e0:	84 e6       	ldi	r24, 0x64	; 100
 1e2:	90 e0       	ldi	r25, 0x00	; 0
 1e4:	b4 df       	rcall	.-152    	; 0x14e <_Z20StartTimer1DelayInMsj>
 1e6:	ce 01       	movw	r24, r28
 1e8:	05 96       	adiw	r24, 0x05	; 5
 1ea:	3d d2       	rcall	.+1146   	; 0x666 <_ZN7LedLamp13LedLampStatusC1Ev>
 1ec:	60 e0       	ldi	r22, 0x00	; 0
 1ee:	ce 01       	movw	r24, r28
 1f0:	05 96       	adiw	r24, 0x05	; 5
 1f2:	40 d2       	rcall	.+1152   	; 0x674 <_ZN7LedLamp13LedLampStatus18SetOverTemperatureEb>
 1f4:	ce 01       	movw	r24, r28
 1f6:	05 96       	adiw	r24, 0x05	; 5
 1f8:	6c d2       	rcall	.+1240   	; 0x6d2 <_ZNK7LedLamp13LedLampStatus7IsKeyONEv>
 1fa:	18 2f       	mov	r17, r24
 1fc:	68 2f       	mov	r22, r24
 1fe:	ce 01       	movw	r24, r28
 200:	05 96       	adiw	r24, 0x05	; 5
 202:	76 d2       	rcall	.+1260   	; 0x6f0 <_ZN7LedLamp13LedLampStatus12SetPrevKeyONEb>
 204:	61 2f       	mov	r22, r17
 206:	ce 01       	movw	r24, r28
 208:	05 96       	adiw	r24, 0x05	; 5
 20a:	69 d2       	rcall	.+1234   	; 0x6de <_ZN7LedLamp13LedLampStatus8SetKeyONEb>
 20c:	1b 82       	std	Y+3, r1	; 0x03
 20e:	84 e6       	ldi	r24, 0x64	; 100
 210:	90 e0       	ldi	r25, 0x00	; 0
 212:	9a 83       	std	Y+2, r25	; 0x02
 214:	89 83       	std	Y+1, r24	; 0x01
 216:	1c 82       	std	Y+4, r1	; 0x04
 218:	82 e7       	ldi	r24, 0x72	; 114
 21a:	e8 2e       	mov	r14, r24
 21c:	80 e0       	ldi	r24, 0x00	; 0
 21e:	f8 2e       	mov	r15, r24
 220:	bd df       	rcall	.-134    	; 0x19c <_Z26WaitTimer1DelayInMsElapsedv>
 222:	84 e6       	ldi	r24, 0x64	; 100
 224:	90 e0       	ldi	r25, 0x00	; 0
 226:	93 df       	rcall	.-218    	; 0x14e <_Z20StartTimer1DelayInMsj>
 228:	81 e0       	ldi	r24, 0x01	; 1
 22a:	90 e0       	ldi	r25, 0x00	; 0
 22c:	bc d1       	rcall	.+888    	; 0x5a6 <GetTemperatureAdcInDegrees>
 22e:	c8 2e       	mov	r12, r24
 230:	d1 2c       	mov	r13, r1
 232:	84 e6       	ldi	r24, 0x64	; 100
 234:	90 e0       	ldi	r25, 0x00	; 0
 236:	3b d1       	rcall	.+630    	; 0x4ae <GetVoltageAdcValueInMv>
 238:	8c 01       	movw	r16, r24
 23a:	84 e6       	ldi	r24, 0x64	; 100
 23c:	90 e0       	ldi	r25, 0x00	; 0
 23e:	75 d1       	rcall	.+746    	; 0x52a <GetCurrentAdcInMa>
 240:	5c 01       	movw	r10, r24
 242:	ce 01       	movw	r24, r28
 244:	05 96       	adiw	r24, 0x05	; 5
 246:	45 d2       	rcall	.+1162   	; 0x6d2 <_ZNK7LedLamp13LedLampStatus7IsKeyONEv>
 248:	68 2f       	mov	r22, r24
 24a:	ce 01       	movw	r24, r28
 24c:	05 96       	adiw	r24, 0x05	; 5
 24e:	50 d2       	rcall	.+1184   	; 0x6f0 <_ZN7LedLamp13LedLampStatus12SetPrevKeyONEb>
 250:	66 df       	rcall	.-308    	; 0x11e <_Z8IsKeysONv>
 252:	68 2f       	mov	r22, r24
 254:	ce 01       	movw	r24, r28
 256:	05 96       	adiw	r24, 0x05	; 5
 258:	42 d2       	rcall	.+1156   	; 0x6de <_ZN7LedLamp13LedLampStatus8SetKeyONEb>
 25a:	ce 01       	movw	r24, r28
 25c:	05 96       	adiw	r24, 0x05	; 5
 25e:	06 d2       	rcall	.+1036   	; 0x66c <_ZNK7LedLamp13LedLampStatus17IsOverTemperatureEv>
 260:	81 11       	cpse	r24, r1
 262:	05 c0       	rjmp	.+10     	; 0x26e <main+0xa6>
 264:	85 e5       	ldi	r24, 0x55	; 85
 266:	c8 16       	cp	r12, r24
 268:	d1 04       	cpc	r13, r1
 26a:	08 f0       	brcs	.+2      	; 0x26e <main+0xa6>
 26c:	b6 c0       	rjmp	.+364    	; 0x3da <main+0x212>
 26e:	ce 01       	movw	r24, r28
 270:	05 96       	adiw	r24, 0x05	; 5
 272:	fc d1       	rcall	.+1016   	; 0x66c <_ZNK7LedLamp13LedLampStatus17IsOverTemperatureEv>
 274:	88 23       	and	r24, r24
 276:	29 f0       	breq	.+10     	; 0x282 <main+0xba>
 278:	83 e3       	ldi	r24, 0x33	; 51
 27a:	c8 16       	cp	r12, r24
 27c:	d1 04       	cpc	r13, r1
 27e:	08 f4       	brcc	.+2      	; 0x282 <main+0xba>
 280:	b1 c0       	rjmp	.+354    	; 0x3e4 <main+0x21c>
 282:	04 3e       	cpi	r16, 0xE4	; 228
 284:	85 e2       	ldi	r24, 0x25	; 37
 286:	18 07       	cpc	r17, r24
 288:	10 f4       	brcc	.+4      	; 0x28e <main+0xc6>
 28a:	61 e0       	ldi	r22, 0x01	; 1
 28c:	05 c0       	rjmp	.+10     	; 0x298 <main+0xd0>
 28e:	05 3b       	cpi	r16, 0xB5	; 181
 290:	8d e2       	ldi	r24, 0x2D	; 45
 292:	18 07       	cpc	r17, r24
 294:	48 f0       	brcs	.+18     	; 0x2a8 <main+0xe0>
 296:	60 e0       	ldi	r22, 0x00	; 0
 298:	ce 01       	movw	r24, r28
 29a:	05 96       	adiw	r24, 0x05	; 5
 29c:	fa d1       	rcall	.+1012   	; 0x692 <_ZN7LedLamp13LedLampStatus13SetLowBatteryEb>
 29e:	60 e0       	ldi	r22, 0x00	; 0
 2a0:	ce 01       	movw	r24, r28
 2a2:	05 96       	adiw	r24, 0x05	; 5
 2a4:	ff d1       	rcall	.+1022   	; 0x6a4 <_ZN7LedLamp13LedLampStatus20SetLowBatteryWarningEb>
 2a6:	09 c0       	rjmp	.+18     	; 0x2ba <main+0xf2>
 2a8:	04 37       	cpi	r16, 0x74	; 116
 2aa:	87 e2       	ldi	r24, 0x27	; 39
 2ac:	18 07       	cpc	r17, r24
 2ae:	28 f4       	brcc	.+10     	; 0x2ba <main+0xf2>
 2b0:	ce 01       	movw	r24, r28
 2b2:	05 96       	adiw	r24, 0x05	; 5
 2b4:	e8 d1       	rcall	.+976    	; 0x686 <_ZNK7LedLamp13LedLampStatus12IsLowBatteryEv>
 2b6:	88 23       	and	r24, r24
 2b8:	91 f3       	breq	.-28     	; 0x29e <main+0xd6>
 2ba:	8d e8       	ldi	r24, 0x8D	; 141
 2bc:	a8 16       	cp	r10, r24
 2be:	b1 04       	cpc	r11, r1
 2c0:	10 f0       	brcs	.+4      	; 0x2c6 <main+0xfe>
 2c2:	33 d2       	rcall	.+1126   	; 0x72a <_Z18AddChargeVoltageOnv>
 2c4:	05 c0       	rjmp	.+10     	; 0x2d0 <main+0x108>
 2c6:	84 e6       	ldi	r24, 0x64	; 100
 2c8:	a8 16       	cp	r10, r24
 2ca:	b1 04       	cpc	r11, r1
 2cc:	08 f4       	brcc	.+2      	; 0x2d0 <main+0x108>
 2ce:	37 d2       	rcall	.+1134   	; 0x73e <_Z19AddChargeVoltageOffv>
 2d0:	ce 01       	movw	r24, r28
 2d2:	05 96       	adiw	r24, 0x05	; 5
 2d4:	fe d1       	rcall	.+1020   	; 0x6d2 <_ZNK7LedLamp13LedLampStatus7IsKeyONEv>
 2d6:	90 91 73 00 	lds	r25, 0x0073	; 0x800073 <__data_end+0x9>
 2da:	e0 91 72 00 	lds	r30, 0x0072	; 0x800072 <__data_end+0x8>
 2de:	89 13       	cpse	r24, r25
 2e0:	09 c0       	rjmp	.+18     	; 0x2f4 <main+0x12c>
 2e2:	f0 e0       	ldi	r31, 0x00	; 0
 2e4:	e6 59       	subi	r30, 0x96	; 150
 2e6:	ff 4f       	sbci	r31, 0xFF	; 255
 2e8:	82 81       	ldd	r24, Z+2	; 0x02
 2ea:	8f 3f       	cpi	r24, 0xFF	; 255
 2ec:	81 f0       	breq	.+32     	; 0x30e <main+0x146>
 2ee:	8f 5f       	subi	r24, 0xFF	; 255
 2f0:	82 83       	std	Z+2, r24	; 0x02
 2f2:	0d c0       	rjmp	.+26     	; 0x30e <main+0x146>
 2f4:	e6 30       	cpi	r30, 0x06	; 6
 2f6:	10 f4       	brcc	.+4      	; 0x2fc <main+0x134>
 2f8:	ef 5f       	subi	r30, 0xFF	; 255
 2fa:	01 c0       	rjmp	.+2      	; 0x2fe <main+0x136>
 2fc:	e0 e0       	ldi	r30, 0x00	; 0
 2fe:	e0 93 72 00 	sts	0x0072, r30	; 0x800072 <__data_end+0x8>
 302:	f0 e0       	ldi	r31, 0x00	; 0
 304:	e6 59       	subi	r30, 0x96	; 150
 306:	ff 4f       	sbci	r31, 0xFF	; 255
 308:	12 82       	std	Z+2, r1	; 0x02
 30a:	80 93 73 00 	sts	0x0073, r24	; 0x800073 <__data_end+0x9>
 30e:	ce 01       	movw	r24, r28
 310:	05 96       	adiw	r24, 0x05	; 5
 312:	b9 d1       	rcall	.+882    	; 0x686 <_ZNK7LedLamp13LedLampStatus12IsLowBatteryEv>
 314:	88 23       	and	r24, r24
 316:	b9 f0       	breq	.+46     	; 0x346 <main+0x17e>
 318:	ce 01       	movw	r24, r28
 31a:	05 96       	adiw	r24, 0x05	; 5
 31c:	cc d1       	rcall	.+920    	; 0x6b6 <_ZNK7LedLamp13LedLampStatus18IsIgnoreLowBatteryEv>
 31e:	81 11       	cpse	r24, r1
 320:	12 c0       	rjmp	.+36     	; 0x346 <main+0x17e>
 322:	ec e6       	ldi	r30, 0x6C	; 108
 324:	f0 e0       	ldi	r31, 0x00	; 0
 326:	80 e0       	ldi	r24, 0x00	; 0
 328:	90 e0       	ldi	r25, 0x00	; 0
 32a:	21 91       	ld	r18, Z+
 32c:	82 0f       	add	r24, r18
 32e:	91 1d       	adc	r25, r1
 330:	ee 16       	cp	r14, r30
 332:	ff 06       	cpc	r15, r31
 334:	d1 f7       	brne	.-12     	; 0x32a <main+0x162>
 336:	20 91 6a 00 	lds	r18, 0x006A	; 0x80006a <__data_end>
 33a:	30 91 6b 00 	lds	r19, 0x006B	; 0x80006b <__data_end+0x1>
 33e:	28 17       	cp	r18, r24
 340:	39 07       	cpc	r19, r25
 342:	08 f0       	brcs	.+2      	; 0x346 <main+0x17e>
 344:	54 c0       	rjmp	.+168    	; 0x3ee <main+0x226>
 346:	8b 81       	ldd	r24, Y+3	; 0x03
 348:	81 11       	cpse	r24, r1
 34a:	0e c0       	rjmp	.+28     	; 0x368 <main+0x1a0>
 34c:	da d2       	rcall	.+1460   	; 0x902 <GetVoltageLevelsTableSize>
 34e:	c8 2e       	mov	r12, r24
 350:	d1 2c       	mov	r13, r1
 352:	dc 14       	cp	r13, r12
 354:	41 f0       	breq	.+16     	; 0x366 <main+0x19e>
 356:	8d 2d       	mov	r24, r13
 358:	d6 d2       	rcall	.+1452   	; 0x906 <GetVoltageLevelTableValue>
 35a:	80 17       	cp	r24, r16
 35c:	91 07       	cpc	r25, r17
 35e:	10 f4       	brcc	.+4      	; 0x364 <main+0x19c>
 360:	d3 94       	inc	r13
 362:	f7 cf       	rjmp	.-18     	; 0x352 <main+0x18a>
 364:	cd 2c       	mov	r12, r13
 366:	cc 82       	std	Y+4, r12	; 0x04
 368:	8c 81       	ldd	r24, Y+4	; 0x04
 36a:	9b 81       	ldd	r25, Y+3	; 0x03
 36c:	94 30       	cpi	r25, 0x04	; 4
 36e:	b0 f0       	brcs	.+44     	; 0x39c <main+0x1d4>
 370:	9a 30       	cpi	r25, 0x0A	; 10
 372:	50 f0       	brcs	.+20     	; 0x388 <main+0x1c0>
 374:	9e 30       	cpi	r25, 0x0E	; 14
 376:	50 f0       	brcs	.+20     	; 0x38c <main+0x1c4>
 378:	94 31       	cpi	r25, 0x14	; 20
 37a:	50 f0       	brcs	.+20     	; 0x390 <main+0x1c8>
 37c:	98 31       	cpi	r25, 0x18	; 24
 37e:	58 f0       	brcs	.+22     	; 0x396 <main+0x1ce>
 380:	9e 31       	cpi	r25, 0x1E	; 30
 382:	60 f4       	brcc	.+24     	; 0x39c <main+0x1d4>
 384:	11 e0       	ldi	r17, 0x01	; 1
 386:	08 c0       	rjmp	.+16     	; 0x398 <main+0x1d0>
 388:	11 e0       	ldi	r17, 0x01	; 1
 38a:	09 c0       	rjmp	.+18     	; 0x39e <main+0x1d6>
 38c:	10 e0       	ldi	r17, 0x00	; 0
 38e:	01 c0       	rjmp	.+2      	; 0x392 <main+0x1ca>
 390:	11 e0       	ldi	r17, 0x01	; 1
 392:	91 e0       	ldi	r25, 0x01	; 1
 394:	05 c0       	rjmp	.+10     	; 0x3a0 <main+0x1d8>
 396:	10 e0       	ldi	r17, 0x00	; 0
 398:	92 e0       	ldi	r25, 0x02	; 2
 39a:	02 c0       	rjmp	.+4      	; 0x3a0 <main+0x1d8>
 39c:	10 e0       	ldi	r17, 0x00	; 0
 39e:	90 e0       	ldi	r25, 0x00	; 0
 3a0:	63 e0       	ldi	r22, 0x03	; 3
 3a2:	d5 d2       	rcall	.+1450   	; 0x94e <__mulqi3>
 3a4:	89 0f       	add	r24, r25
 3a6:	b8 d2       	rcall	.+1392   	; 0x918 <GetLedFlashingTableValue>
 3a8:	08 2f       	mov	r16, r24
 3aa:	11 23       	and	r17, r17
 3ac:	11 f0       	breq	.+4      	; 0x3b2 <main+0x1ea>
 3ae:	02 95       	swap	r16
 3b0:	0f 70       	andi	r16, 0x0F	; 15
 3b2:	80 2f       	mov	r24, r16
 3b4:	81 70       	andi	r24, 0x01	; 1
 3b6:	15 d2       	rcall	.+1066   	; 0x7e2 <_Z13SetLedVoltRedb>
 3b8:	01 fb       	bst	r16, 1
 3ba:	88 27       	eor	r24, r24
 3bc:	80 f9       	bld	r24, 0
 3be:	03 d2       	rcall	.+1030   	; 0x7c6 <_Z16SetLedVoltYellowb>
 3c0:	02 fb       	bst	r16, 2
 3c2:	88 27       	eor	r24, r24
 3c4:	80 f9       	bld	r24, 0
 3c6:	f1 d1       	rcall	.+994    	; 0x7aa <_Z16SetLedVoltGreen1b>
 3c8:	03 fb       	bst	r16, 3
 3ca:	88 27       	eor	r24, r24
 3cc:	80 f9       	bld	r24, 0
 3ce:	df d1       	rcall	.+958    	; 0x78e <_Z16SetLedVoltGreen2b>
 3d0:	ce 01       	movw	r24, r28
 3d2:	01 96       	adiw	r24, 0x01	; 1
 3d4:	98 de       	rcall	.-720    	; 0x106 <_ZN7LedLamp11IndicatorIF6UpdateEv>
 3d6:	90 d2       	rcall	.+1312   	; 0x8f8 <_Z12ShiftRegPushv>
 3d8:	23 cf       	rjmp	.-442    	; 0x220 <main+0x58>
 3da:	61 e0       	ldi	r22, 0x01	; 1
 3dc:	ce 01       	movw	r24, r28
 3de:	05 96       	adiw	r24, 0x05	; 5
 3e0:	49 d1       	rcall	.+658    	; 0x674 <_ZN7LedLamp13LedLampStatus18SetOverTemperatureEb>
 3e2:	45 cf       	rjmp	.-374    	; 0x26e <main+0xa6>
 3e4:	60 e0       	ldi	r22, 0x00	; 0
 3e6:	ce 01       	movw	r24, r28
 3e8:	05 96       	adiw	r24, 0x05	; 5
 3ea:	44 d1       	rcall	.+648    	; 0x674 <_ZN7LedLamp13LedLampStatus18SetOverTemperatureEb>
 3ec:	4a cf       	rjmp	.-364    	; 0x282 <main+0xba>
 3ee:	61 e0       	ldi	r22, 0x01	; 1
 3f0:	ce 01       	movw	r24, r28
 3f2:	05 96       	adiw	r24, 0x05	; 5
 3f4:	65 d1       	rcall	.+714    	; 0x6c0 <_ZN7LedLamp13LedLampStatus19SetIgnoreLowBatteryEb>
 3f6:	a7 cf       	rjmp	.-178    	; 0x346 <main+0x17e>

000003f8 <_GLOBAL__sub_I__Z8IsKeysONv>:
 3f8:	ea e6       	ldi	r30, 0x6A	; 106
 3fa:	f0 e0       	ldi	r31, 0x00	; 0
 3fc:	8e e1       	ldi	r24, 0x1E	; 30
 3fe:	90 e0       	ldi	r25, 0x00	; 0
 400:	91 83       	std	Z+1, r25	; 0x01
 402:	80 83       	st	Z, r24
 404:	10 86       	std	Z+8, r1	; 0x08
 406:	81 e0       	ldi	r24, 0x01	; 1
 408:	81 87       	std	Z+9, r24	; 0x09
 40a:	8f ef       	ldi	r24, 0xFF	; 255
 40c:	82 83       	std	Z+2, r24	; 0x02
 40e:	83 83       	std	Z+3, r24	; 0x03
 410:	84 83       	std	Z+4, r24	; 0x04
 412:	85 83       	std	Z+5, r24	; 0x05
 414:	86 83       	std	Z+6, r24	; 0x06
 416:	87 83       	std	Z+7, r24	; 0x07
 418:	08 95       	ret

0000041a <_Z13DelayMicroSech>:
 41a:	88 23       	and	r24, r24
 41c:	39 f0       	breq	.+14     	; 0x42c <_Z13DelayMicroSech+0x12>
	...
 426:	00 00       	nop
 428:	81 50       	subi	r24, 0x01	; 1
 42a:	f7 cf       	rjmp	.-18     	; 0x41a <_Z13DelayMicroSech>
 42c:	08 95       	ret

0000042e <_Z12DelayMiliSecj>:
 42e:	cf 93       	push	r28
 430:	df 93       	push	r29
 432:	ec 01       	movw	r28, r24
 434:	20 97       	sbiw	r28, 0x00	; 0
 436:	51 f0       	breq	.+20     	; 0x44c <_Z12DelayMiliSecj+0x1e>
 438:	8a ef       	ldi	r24, 0xFA	; 250
 43a:	ef df       	rcall	.-34     	; 0x41a <_Z13DelayMicroSech>
 43c:	8a ef       	ldi	r24, 0xFA	; 250
 43e:	ed df       	rcall	.-38     	; 0x41a <_Z13DelayMicroSech>
 440:	8a ef       	ldi	r24, 0xFA	; 250
 442:	eb df       	rcall	.-42     	; 0x41a <_Z13DelayMicroSech>
 444:	8a ef       	ldi	r24, 0xFA	; 250
 446:	e9 df       	rcall	.-46     	; 0x41a <_Z13DelayMicroSech>
 448:	21 97       	sbiw	r28, 0x01	; 1
 44a:	f4 cf       	rjmp	.-24     	; 0x434 <_Z12DelayMiliSecj+0x6>
 44c:	df 91       	pop	r29
 44e:	cf 91       	pop	r28
 450:	08 95       	ret

00000452 <_Z20InitCurrentSensorADCv>:
 452:	bc 98       	cbi	0x17, 4	; 23
 454:	c4 98       	cbi	0x18, 4	; 24
 456:	82 e0       	ldi	r24, 0x02	; 2
 458:	87 b9       	out	0x07, r24	; 7
 45a:	86 e9       	ldi	r24, 0x96	; 150
 45c:	86 b9       	out	0x06, r24	; 6
 45e:	83 b1       	in	r24, 0x03	; 3
 460:	80 74       	andi	r24, 0x40	; 64
 462:	83 b9       	out	0x03, r24	; 3
 464:	a4 9a       	sbi	0x14, 4	; 20
 466:	08 95       	ret

00000468 <_Z14InitVoltageADCv>:
 468:	bb 98       	cbi	0x17, 3	; 23
 46a:	c3 98       	cbi	0x18, 3	; 24
 46c:	83 e0       	ldi	r24, 0x03	; 3
 46e:	87 b9       	out	0x07, r24	; 7
 470:	86 e9       	ldi	r24, 0x96	; 150
 472:	86 b9       	out	0x06, r24	; 6
 474:	83 b1       	in	r24, 0x03	; 3
 476:	80 74       	andi	r24, 0x40	; 64
 478:	83 b9       	out	0x03, r24	; 3
 47a:	a3 9a       	sbi	0x14, 3	; 20
 47c:	08 95       	ret

0000047e <_Z24InitTemperatureSensorADCv>:
 47e:	ba 98       	cbi	0x17, 2	; 23
 480:	c2 98       	cbi	0x18, 2	; 24
 482:	81 e0       	ldi	r24, 0x01	; 1
 484:	87 b9       	out	0x07, r24	; 7
 486:	86 e9       	ldi	r24, 0x96	; 150
 488:	86 b9       	out	0x06, r24	; 6
 48a:	83 b1       	in	r24, 0x03	; 3
 48c:	80 74       	andi	r24, 0x40	; 64
 48e:	83 b9       	out	0x03, r24	; 3
 490:	a2 9a       	sbi	0x14, 2	; 20
 492:	08 95       	ret

00000494 <_Z18StartAdcConversionv>:
 494:	34 9a       	sbi	0x06, 4	; 6
 496:	36 9a       	sbi	0x06, 6	; 6
 498:	34 9b       	sbis	0x06, 4	; 6
 49a:	fe cf       	rjmp	.-4      	; 0x498 <_Z18StartAdcConversionv+0x4>
 49c:	34 9a       	sbi	0x06, 4	; 6
 49e:	24 b1       	in	r18, 0x04	; 4
 4a0:	85 b1       	in	r24, 0x05	; 5
 4a2:	90 e0       	ldi	r25, 0x00	; 0
 4a4:	98 2f       	mov	r25, r24
 4a6:	88 27       	eor	r24, r24
 4a8:	82 0f       	add	r24, r18
 4aa:	91 1d       	adc	r25, r1
 4ac:	08 95       	ret

000004ae <GetVoltageAdcValueInMv>:
 4ae:	cf 92       	push	r12
 4b0:	df 92       	push	r13
 4b2:	ef 92       	push	r14
 4b4:	ff 92       	push	r15
 4b6:	0f 93       	push	r16
 4b8:	1f 93       	push	r17
 4ba:	cf 93       	push	r28
 4bc:	df 93       	push	r29
 4be:	ec 01       	movw	r28, r24
 4c0:	c7 36       	cpi	r28, 0x67	; 103
 4c2:	81 e2       	ldi	r24, 0x21	; 33
 4c4:	d8 07       	cpc	r29, r24
 4c6:	10 f0       	brcs	.+4      	; 0x4cc <GetVoltageAdcValueInMv+0x1e>
 4c8:	c6 e6       	ldi	r28, 0x66	; 102
 4ca:	d1 e2       	ldi	r29, 0x21	; 33
 4cc:	cd df       	rcall	.-102    	; 0x468 <_Z14InitVoltageADCv>
 4ce:	e2 df       	rcall	.-60     	; 0x494 <_Z18StartAdcConversionv>
 4d0:	00 e0       	ldi	r16, 0x00	; 0
 4d2:	10 e0       	ldi	r17, 0x00	; 0
 4d4:	c1 2c       	mov	r12, r1
 4d6:	d1 2c       	mov	r13, r1
 4d8:	76 01       	movw	r14, r12
 4da:	0c 17       	cp	r16, r28
 4dc:	1d 07       	cpc	r17, r29
 4de:	41 f0       	breq	.+16     	; 0x4f0 <GetVoltageAdcValueInMv+0x42>
 4e0:	d9 df       	rcall	.-78     	; 0x494 <_Z18StartAdcConversionv>
 4e2:	c8 0e       	add	r12, r24
 4e4:	d9 1e       	adc	r13, r25
 4e6:	e1 1c       	adc	r14, r1
 4e8:	f1 1c       	adc	r15, r1
 4ea:	0f 5f       	subi	r16, 0xFF	; 255
 4ec:	1f 4f       	sbci	r17, 0xFF	; 255
 4ee:	f5 cf       	rjmp	.-22     	; 0x4da <GetVoltageAdcValueInMv+0x2c>
 4f0:	2b ee       	ldi	r18, 0xEB	; 235
 4f2:	31 e0       	ldi	r19, 0x01	; 1
 4f4:	40 e0       	ldi	r20, 0x00	; 0
 4f6:	50 e0       	ldi	r21, 0x00	; 0
 4f8:	c7 01       	movw	r24, r14
 4fa:	b6 01       	movw	r22, r12
 4fc:	42 d2       	rcall	.+1156   	; 0x982 <__mulsi3>
 4fe:	29 e1       	ldi	r18, 0x19	; 25
 500:	30 e0       	ldi	r19, 0x00	; 0
 502:	40 e0       	ldi	r20, 0x00	; 0
 504:	50 e0       	ldi	r21, 0x00	; 0
 506:	6a d2       	rcall	.+1236   	; 0x9dc <__udivmodsi4>
 508:	ca 01       	movw	r24, r20
 50a:	b9 01       	movw	r22, r18
 50c:	98 01       	movw	r18, r16
 50e:	40 e0       	ldi	r20, 0x00	; 0
 510:	50 e0       	ldi	r21, 0x00	; 0
 512:	64 d2       	rcall	.+1224   	; 0x9dc <__udivmodsi4>
 514:	c9 01       	movw	r24, r18
 516:	40 96       	adiw	r24, 0x10	; 16
 518:	df 91       	pop	r29
 51a:	cf 91       	pop	r28
 51c:	1f 91       	pop	r17
 51e:	0f 91       	pop	r16
 520:	ff 90       	pop	r15
 522:	ef 90       	pop	r14
 524:	df 90       	pop	r13
 526:	cf 90       	pop	r12
 528:	08 95       	ret

0000052a <GetCurrentAdcInMa>:
 52a:	cf 92       	push	r12
 52c:	df 92       	push	r13
 52e:	ef 92       	push	r14
 530:	ff 92       	push	r15
 532:	0f 93       	push	r16
 534:	1f 93       	push	r17
 536:	cf 93       	push	r28
 538:	df 93       	push	r29
 53a:	ec 01       	movw	r28, r24
 53c:	c2 3f       	cpi	r28, 0xF2	; 242
 53e:	88 e3       	ldi	r24, 0x38	; 56
 540:	d8 07       	cpc	r29, r24
 542:	10 f0       	brcs	.+4      	; 0x548 <GetCurrentAdcInMa+0x1e>
 544:	c1 ef       	ldi	r28, 0xF1	; 241
 546:	d8 e3       	ldi	r29, 0x38	; 56
 548:	84 df       	rcall	.-248    	; 0x452 <_Z20InitCurrentSensorADCv>
 54a:	a4 df       	rcall	.-184    	; 0x494 <_Z18StartAdcConversionv>
 54c:	00 e0       	ldi	r16, 0x00	; 0
 54e:	10 e0       	ldi	r17, 0x00	; 0
 550:	c1 2c       	mov	r12, r1
 552:	d1 2c       	mov	r13, r1
 554:	76 01       	movw	r14, r12
 556:	0c 17       	cp	r16, r28
 558:	1d 07       	cpc	r17, r29
 55a:	41 f0       	breq	.+16     	; 0x56c <GetCurrentAdcInMa+0x42>
 55c:	9b df       	rcall	.-202    	; 0x494 <_Z18StartAdcConversionv>
 55e:	c8 0e       	add	r12, r24
 560:	d9 1e       	adc	r13, r25
 562:	e1 1c       	adc	r14, r1
 564:	f1 1c       	adc	r15, r1
 566:	0f 5f       	subi	r16, 0xFF	; 255
 568:	1f 4f       	sbci	r17, 0xFF	; 255
 56a:	f5 cf       	rjmp	.-22     	; 0x556 <GetCurrentAdcInMa+0x2c>
 56c:	20 e2       	ldi	r18, 0x20	; 32
 56e:	31 e0       	ldi	r19, 0x01	; 1
 570:	40 e0       	ldi	r20, 0x00	; 0
 572:	50 e0       	ldi	r21, 0x00	; 0
 574:	c7 01       	movw	r24, r14
 576:	b6 01       	movw	r22, r12
 578:	04 d2       	rcall	.+1032   	; 0x982 <__mulsi3>
 57a:	2d e7       	ldi	r18, 0x7D	; 125
 57c:	30 e0       	ldi	r19, 0x00	; 0
 57e:	40 e0       	ldi	r20, 0x00	; 0
 580:	50 e0       	ldi	r21, 0x00	; 0
 582:	2c d2       	rcall	.+1112   	; 0x9dc <__udivmodsi4>
 584:	ca 01       	movw	r24, r20
 586:	b9 01       	movw	r22, r18
 588:	98 01       	movw	r18, r16
 58a:	40 e0       	ldi	r20, 0x00	; 0
 58c:	50 e0       	ldi	r21, 0x00	; 0
 58e:	26 d2       	rcall	.+1100   	; 0x9dc <__udivmodsi4>
 590:	c9 01       	movw	r24, r18
 592:	08 96       	adiw	r24, 0x08	; 8
 594:	df 91       	pop	r29
 596:	cf 91       	pop	r28
 598:	1f 91       	pop	r17
 59a:	0f 91       	pop	r16
 59c:	ff 90       	pop	r15
 59e:	ef 90       	pop	r14
 5a0:	df 90       	pop	r13
 5a2:	cf 90       	pop	r12
 5a4:	08 95       	ret

000005a6 <GetTemperatureAdcInDegrees>:
 5a6:	7f 92       	push	r7
 5a8:	8f 92       	push	r8
 5aa:	9f 92       	push	r9
 5ac:	af 92       	push	r10
 5ae:	bf 92       	push	r11
 5b0:	cf 92       	push	r12
 5b2:	df 92       	push	r13
 5b4:	ef 92       	push	r14
 5b6:	ff 92       	push	r15
 5b8:	0f 93       	push	r16
 5ba:	1f 93       	push	r17
 5bc:	cf 93       	push	r28
 5be:	df 93       	push	r29
 5c0:	8c 01       	movw	r16, r24
 5c2:	5d df       	rcall	.-326    	; 0x47e <_Z24InitTemperatureSensorADCv>
 5c4:	67 df       	rcall	.-306    	; 0x494 <_Z18StartAdcConversionv>
 5c6:	c0 e0       	ldi	r28, 0x00	; 0
 5c8:	d0 e0       	ldi	r29, 0x00	; 0
 5ca:	c1 2c       	mov	r12, r1
 5cc:	d1 2c       	mov	r13, r1
 5ce:	76 01       	movw	r14, r12
 5d0:	c0 17       	cp	r28, r16
 5d2:	d1 07       	cpc	r29, r17
 5d4:	39 f0       	breq	.+14     	; 0x5e4 <GetTemperatureAdcInDegrees+0x3e>
 5d6:	5e df       	rcall	.-324    	; 0x494 <_Z18StartAdcConversionv>
 5d8:	c8 0e       	add	r12, r24
 5da:	d9 1e       	adc	r13, r25
 5dc:	e1 1c       	adc	r14, r1
 5de:	f1 1c       	adc	r15, r1
 5e0:	21 96       	adiw	r28, 0x01	; 1
 5e2:	f6 cf       	rjmp	.-20     	; 0x5d0 <GetTemperatureAdcInDegrees+0x2a>
 5e4:	9e 01       	movw	r18, r28
 5e6:	40 e0       	ldi	r20, 0x00	; 0
 5e8:	50 e0       	ldi	r21, 0x00	; 0
 5ea:	c7 01       	movw	r24, r14
 5ec:	b6 01       	movw	r22, r12
 5ee:	f6 d1       	rcall	.+1004   	; 0x9dc <__udivmodsi4>
 5f0:	49 01       	movw	r8, r18
 5f2:	5a 01       	movw	r10, r20
 5f4:	69 01       	movw	r12, r18
 5f6:	96 d1       	rcall	.+812    	; 0x924 <GetTempSensorTableSize>
 5f8:	78 2e       	mov	r7, r24
 5fa:	c1 e0       	ldi	r28, 0x01	; 1
 5fc:	c7 15       	cp	r28, r7
 5fe:	20 f5       	brcc	.+72     	; 0x648 <GetTemperatureAdcInDegrees+0xa2>
 600:	df ef       	ldi	r29, 0xFF	; 255
 602:	dc 0f       	add	r29, r28
 604:	8d 2f       	mov	r24, r29
 606:	90 d1       	rcall	.+800    	; 0x928 <GetTempSensorTableAdcValue>
 608:	7c 01       	movw	r14, r24
 60a:	8c 2f       	mov	r24, r28
 60c:	8d d1       	rcall	.+794    	; 0x928 <GetTempSensorTableAdcValue>
 60e:	8c 01       	movw	r16, r24
 610:	ce 14       	cp	r12, r14
 612:	df 04       	cpc	r13, r15
 614:	b8 f0       	brcs	.+46     	; 0x644 <GetTemperatureAdcInDegrees+0x9e>
 616:	8c 15       	cp	r24, r12
 618:	9d 05       	cpc	r25, r13
 61a:	a0 f0       	brcs	.+40     	; 0x644 <GetTemperatureAdcInDegrees+0x9e>
 61c:	8d 2f       	mov	r24, r29
 61e:	8e d1       	rcall	.+796    	; 0x93c <GetTempSensorTableTemperatureValue>
 620:	d8 2f       	mov	r29, r24
 622:	8c 2f       	mov	r24, r28
 624:	8b d1       	rcall	.+790    	; 0x93c <GetTempSensorTableTemperatureValue>
 626:	8e 18       	sub	r8, r14
 628:	9f 08       	sbc	r9, r15
 62a:	6d 2f       	mov	r22, r29
 62c:	70 e0       	ldi	r23, 0x00	; 0
 62e:	68 1b       	sub	r22, r24
 630:	71 09       	sbc	r23, r1
 632:	c4 01       	movw	r24, r8
 634:	95 d1       	rcall	.+810    	; 0x960 <__mulhi3>
 636:	b8 01       	movw	r22, r16
 638:	6e 19       	sub	r22, r14
 63a:	7f 09       	sbc	r23, r15
 63c:	bb d1       	rcall	.+886    	; 0x9b4 <__udivmodhi4>
 63e:	8d 2f       	mov	r24, r29
 640:	86 1b       	sub	r24, r22
 642:	03 c0       	rjmp	.+6      	; 0x64a <GetTemperatureAdcInDegrees+0xa4>
 644:	cf 5f       	subi	r28, 0xFF	; 255
 646:	da cf       	rjmp	.-76     	; 0x5fc <GetTemperatureAdcInDegrees+0x56>
 648:	8f ef       	ldi	r24, 0xFF	; 255
 64a:	df 91       	pop	r29
 64c:	cf 91       	pop	r28
 64e:	1f 91       	pop	r17
 650:	0f 91       	pop	r16
 652:	ff 90       	pop	r15
 654:	ef 90       	pop	r14
 656:	df 90       	pop	r13
 658:	cf 90       	pop	r12
 65a:	bf 90       	pop	r11
 65c:	af 90       	pop	r10
 65e:	9f 90       	pop	r9
 660:	8f 90       	pop	r8
 662:	7f 90       	pop	r7
 664:	08 95       	ret

00000666 <_ZN7LedLamp13LedLampStatusC1Ev>:
 666:	fc 01       	movw	r30, r24
 668:	10 82       	st	Z, r1
 66a:	08 95       	ret

0000066c <_ZNK7LedLamp13LedLampStatus17IsOverTemperatureEv>:
 66c:	fc 01       	movw	r30, r24
 66e:	80 81       	ld	r24, Z
 670:	81 70       	andi	r24, 0x01	; 1
 672:	08 95       	ret

00000674 <_ZN7LedLamp13LedLampStatus18SetOverTemperatureEb>:
 674:	fc 01       	movw	r30, r24
 676:	90 81       	ld	r25, Z
 678:	66 23       	and	r22, r22
 67a:	11 f0       	breq	.+4      	; 0x680 <_ZN7LedLamp13LedLampStatus18SetOverTemperatureEb+0xc>
 67c:	91 60       	ori	r25, 0x01	; 1
 67e:	01 c0       	rjmp	.+2      	; 0x682 <_ZN7LedLamp13LedLampStatus18SetOverTemperatureEb+0xe>
 680:	9e 7f       	andi	r25, 0xFE	; 254
 682:	90 83       	st	Z, r25
 684:	08 95       	ret

00000686 <_ZNK7LedLamp13LedLampStatus12IsLowBatteryEv>:
 686:	fc 01       	movw	r30, r24
 688:	80 81       	ld	r24, Z
 68a:	82 fb       	bst	r24, 2
 68c:	88 27       	eor	r24, r24
 68e:	80 f9       	bld	r24, 0
 690:	08 95       	ret

00000692 <_ZN7LedLamp13LedLampStatus13SetLowBatteryEb>:
 692:	fc 01       	movw	r30, r24
 694:	90 81       	ld	r25, Z
 696:	66 23       	and	r22, r22
 698:	11 f0       	breq	.+4      	; 0x69e <_ZN7LedLamp13LedLampStatus13SetLowBatteryEb+0xc>
 69a:	94 60       	ori	r25, 0x04	; 4
 69c:	01 c0       	rjmp	.+2      	; 0x6a0 <_ZN7LedLamp13LedLampStatus13SetLowBatteryEb+0xe>
 69e:	9b 7f       	andi	r25, 0xFB	; 251
 6a0:	90 83       	st	Z, r25
 6a2:	08 95       	ret

000006a4 <_ZN7LedLamp13LedLampStatus20SetLowBatteryWarningEb>:
 6a4:	fc 01       	movw	r30, r24
 6a6:	90 81       	ld	r25, Z
 6a8:	66 23       	and	r22, r22
 6aa:	11 f0       	breq	.+4      	; 0x6b0 <_ZN7LedLamp13LedLampStatus20SetLowBatteryWarningEb+0xc>
 6ac:	98 60       	ori	r25, 0x08	; 8
 6ae:	01 c0       	rjmp	.+2      	; 0x6b2 <_ZN7LedLamp13LedLampStatus20SetLowBatteryWarningEb+0xe>
 6b0:	97 7f       	andi	r25, 0xF7	; 247
 6b2:	90 83       	st	Z, r25
 6b4:	08 95       	ret

000006b6 <_ZNK7LedLamp13LedLampStatus18IsIgnoreLowBatteryEv>:
 6b6:	fc 01       	movw	r30, r24
 6b8:	80 81       	ld	r24, Z
 6ba:	82 95       	swap	r24
 6bc:	81 70       	andi	r24, 0x01	; 1
 6be:	08 95       	ret

000006c0 <_ZN7LedLamp13LedLampStatus19SetIgnoreLowBatteryEb>:
 6c0:	fc 01       	movw	r30, r24
 6c2:	90 81       	ld	r25, Z
 6c4:	66 23       	and	r22, r22
 6c6:	11 f0       	breq	.+4      	; 0x6cc <_ZN7LedLamp13LedLampStatus19SetIgnoreLowBatteryEb+0xc>
 6c8:	90 61       	ori	r25, 0x10	; 16
 6ca:	01 c0       	rjmp	.+2      	; 0x6ce <_ZN7LedLamp13LedLampStatus19SetIgnoreLowBatteryEb+0xe>
 6cc:	9f 7e       	andi	r25, 0xEF	; 239
 6ce:	90 83       	st	Z, r25
 6d0:	08 95       	ret

000006d2 <_ZNK7LedLamp13LedLampStatus7IsKeyONEv>:
 6d2:	fc 01       	movw	r30, r24
 6d4:	80 81       	ld	r24, Z
 6d6:	85 fb       	bst	r24, 5
 6d8:	88 27       	eor	r24, r24
 6da:	80 f9       	bld	r24, 0
 6dc:	08 95       	ret

000006de <_ZN7LedLamp13LedLampStatus8SetKeyONEb>:
 6de:	fc 01       	movw	r30, r24
 6e0:	90 81       	ld	r25, Z
 6e2:	66 23       	and	r22, r22
 6e4:	11 f0       	breq	.+4      	; 0x6ea <_ZN7LedLamp13LedLampStatus8SetKeyONEb+0xc>
 6e6:	90 62       	ori	r25, 0x20	; 32
 6e8:	01 c0       	rjmp	.+2      	; 0x6ec <_ZN7LedLamp13LedLampStatus8SetKeyONEb+0xe>
 6ea:	9f 7d       	andi	r25, 0xDF	; 223
 6ec:	90 83       	st	Z, r25
 6ee:	08 95       	ret

000006f0 <_ZN7LedLamp13LedLampStatus12SetPrevKeyONEb>:
 6f0:	fc 01       	movw	r30, r24
 6f2:	90 81       	ld	r25, Z
 6f4:	66 23       	and	r22, r22
 6f6:	11 f0       	breq	.+4      	; 0x6fc <_ZN7LedLamp13LedLampStatus12SetPrevKeyONEb+0xc>
 6f8:	90 64       	ori	r25, 0x40	; 64
 6fa:	01 c0       	rjmp	.+2      	; 0x6fe <_ZN7LedLamp13LedLampStatus12SetPrevKeyONEb+0xe>
 6fc:	9f 7b       	andi	r25, 0xBF	; 191
 6fe:	90 83       	st	Z, r25
 700:	08 95       	ret

00000702 <_Z8BuzzerOnv>:
 702:	80 91 74 00 	lds	r24, 0x0074	; 0x800074 <g_shiftRegCodeWord>
 706:	90 91 75 00 	lds	r25, 0x0075	; 0x800075 <g_shiftRegCodeWord+0x1>
 70a:	80 62       	ori	r24, 0x20	; 32
 70c:	90 93 75 00 	sts	0x0075, r25	; 0x800075 <g_shiftRegCodeWord+0x1>
 710:	80 93 74 00 	sts	0x0074, r24	; 0x800074 <g_shiftRegCodeWord>
 714:	08 95       	ret

00000716 <_Z9BuzzerOffv>:
 716:	80 91 74 00 	lds	r24, 0x0074	; 0x800074 <g_shiftRegCodeWord>
 71a:	90 91 75 00 	lds	r25, 0x0075	; 0x800075 <g_shiftRegCodeWord+0x1>
 71e:	8f 7d       	andi	r24, 0xDF	; 223
 720:	90 93 75 00 	sts	0x0075, r25	; 0x800075 <g_shiftRegCodeWord+0x1>
 724:	80 93 74 00 	sts	0x0074, r24	; 0x800074 <g_shiftRegCodeWord>
 728:	08 95       	ret

0000072a <_Z18AddChargeVoltageOnv>:
 72a:	80 91 74 00 	lds	r24, 0x0074	; 0x800074 <g_shiftRegCodeWord>
 72e:	90 91 75 00 	lds	r25, 0x0075	; 0x800075 <g_shiftRegCodeWord+0x1>
 732:	87 7f       	andi	r24, 0xF7	; 247
 734:	90 93 75 00 	sts	0x0075, r25	; 0x800075 <g_shiftRegCodeWord+0x1>
 738:	80 93 74 00 	sts	0x0074, r24	; 0x800074 <g_shiftRegCodeWord>
 73c:	08 95       	ret

0000073e <_Z19AddChargeVoltageOffv>:
 73e:	80 91 74 00 	lds	r24, 0x0074	; 0x800074 <g_shiftRegCodeWord>
 742:	90 91 75 00 	lds	r25, 0x0075	; 0x800075 <g_shiftRegCodeWord+0x1>
 746:	88 60       	ori	r24, 0x08	; 8
 748:	90 93 75 00 	sts	0x0075, r25	; 0x800075 <g_shiftRegCodeWord+0x1>
 74c:	80 93 74 00 	sts	0x0074, r24	; 0x800074 <g_shiftRegCodeWord>
 750:	08 95       	ret

00000752 <_Z12ConverterOffv>:
 752:	80 91 74 00 	lds	r24, 0x0074	; 0x800074 <g_shiftRegCodeWord>
 756:	90 91 75 00 	lds	r25, 0x0075	; 0x800075 <g_shiftRegCodeWord+0x1>
 75a:	8f 7b       	andi	r24, 0xBF	; 191
 75c:	90 93 75 00 	sts	0x0075, r25	; 0x800075 <g_shiftRegCodeWord+0x1>
 760:	80 93 74 00 	sts	0x0074, r24	; 0x800074 <g_shiftRegCodeWord>
 764:	08 95       	ret

00000766 <_Z21SenseBatteryVoltageOnv>:
 766:	80 91 74 00 	lds	r24, 0x0074	; 0x800074 <g_shiftRegCodeWord>
 76a:	90 91 75 00 	lds	r25, 0x0075	; 0x800075 <g_shiftRegCodeWord+0x1>
 76e:	80 68       	ori	r24, 0x80	; 128
 770:	90 93 75 00 	sts	0x0075, r25	; 0x800075 <g_shiftRegCodeWord+0x1>
 774:	80 93 74 00 	sts	0x0074, r24	; 0x800074 <g_shiftRegCodeWord>
 778:	08 95       	ret

0000077a <_Z22SenseBatteryVoltageOffv>:
 77a:	80 91 74 00 	lds	r24, 0x0074	; 0x800074 <g_shiftRegCodeWord>
 77e:	90 91 75 00 	lds	r25, 0x0075	; 0x800075 <g_shiftRegCodeWord+0x1>
 782:	8f 77       	andi	r24, 0x7F	; 127
 784:	90 93 75 00 	sts	0x0075, r25	; 0x800075 <g_shiftRegCodeWord+0x1>
 788:	80 93 74 00 	sts	0x0074, r24	; 0x800074 <g_shiftRegCodeWord>
 78c:	08 95       	ret

0000078e <_Z16SetLedVoltGreen2b>:
 78e:	20 91 74 00 	lds	r18, 0x0074	; 0x800074 <g_shiftRegCodeWord>
 792:	30 91 75 00 	lds	r19, 0x0075	; 0x800075 <g_shiftRegCodeWord+0x1>
 796:	88 23       	and	r24, r24
 798:	11 f0       	breq	.+4      	; 0x79e <_Z16SetLedVoltGreen2b+0x10>
 79a:	31 60       	ori	r19, 0x01	; 1
 79c:	01 c0       	rjmp	.+2      	; 0x7a0 <_Z16SetLedVoltGreen2b+0x12>
 79e:	3e 7f       	andi	r19, 0xFE	; 254
 7a0:	30 93 75 00 	sts	0x0075, r19	; 0x800075 <g_shiftRegCodeWord+0x1>
 7a4:	20 93 74 00 	sts	0x0074, r18	; 0x800074 <g_shiftRegCodeWord>
 7a8:	08 95       	ret

000007aa <_Z16SetLedVoltGreen1b>:
 7aa:	20 91 74 00 	lds	r18, 0x0074	; 0x800074 <g_shiftRegCodeWord>
 7ae:	30 91 75 00 	lds	r19, 0x0075	; 0x800075 <g_shiftRegCodeWord+0x1>
 7b2:	88 23       	and	r24, r24
 7b4:	11 f0       	breq	.+4      	; 0x7ba <_Z16SetLedVoltGreen1b+0x10>
 7b6:	34 60       	ori	r19, 0x04	; 4
 7b8:	01 c0       	rjmp	.+2      	; 0x7bc <_Z16SetLedVoltGreen1b+0x12>
 7ba:	3b 7f       	andi	r19, 0xFB	; 251
 7bc:	30 93 75 00 	sts	0x0075, r19	; 0x800075 <g_shiftRegCodeWord+0x1>
 7c0:	20 93 74 00 	sts	0x0074, r18	; 0x800074 <g_shiftRegCodeWord>
 7c4:	08 95       	ret

000007c6 <_Z16SetLedVoltYellowb>:
 7c6:	20 91 74 00 	lds	r18, 0x0074	; 0x800074 <g_shiftRegCodeWord>
 7ca:	30 91 75 00 	lds	r19, 0x0075	; 0x800075 <g_shiftRegCodeWord+0x1>
 7ce:	88 23       	and	r24, r24
 7d0:	11 f0       	breq	.+4      	; 0x7d6 <_Z16SetLedVoltYellowb+0x10>
 7d2:	30 61       	ori	r19, 0x10	; 16
 7d4:	01 c0       	rjmp	.+2      	; 0x7d8 <_Z16SetLedVoltYellowb+0x12>
 7d6:	3f 7e       	andi	r19, 0xEF	; 239
 7d8:	30 93 75 00 	sts	0x0075, r19	; 0x800075 <g_shiftRegCodeWord+0x1>
 7dc:	20 93 74 00 	sts	0x0074, r18	; 0x800074 <g_shiftRegCodeWord>
 7e0:	08 95       	ret

000007e2 <_Z13SetLedVoltRedb>:
 7e2:	20 91 74 00 	lds	r18, 0x0074	; 0x800074 <g_shiftRegCodeWord>
 7e6:	30 91 75 00 	lds	r19, 0x0075	; 0x800075 <g_shiftRegCodeWord+0x1>
 7ea:	88 23       	and	r24, r24
 7ec:	11 f0       	breq	.+4      	; 0x7f2 <_Z13SetLedVoltRedb+0x10>
 7ee:	30 64       	ori	r19, 0x40	; 64
 7f0:	01 c0       	rjmp	.+2      	; 0x7f4 <_Z13SetLedVoltRedb+0x12>
 7f2:	3f 7b       	andi	r19, 0xBF	; 191
 7f4:	30 93 75 00 	sts	0x0075, r19	; 0x800075 <g_shiftRegCodeWord+0x1>
 7f8:	20 93 74 00 	sts	0x0074, r18	; 0x800074 <g_shiftRegCodeWord>
 7fc:	08 95       	ret

000007fe <_Z16LedVoltGreen2Offv>:
 7fe:	80 91 74 00 	lds	r24, 0x0074	; 0x800074 <g_shiftRegCodeWord>
 802:	90 91 75 00 	lds	r25, 0x0075	; 0x800075 <g_shiftRegCodeWord+0x1>
 806:	9e 7f       	andi	r25, 0xFE	; 254
 808:	90 93 75 00 	sts	0x0075, r25	; 0x800075 <g_shiftRegCodeWord+0x1>
 80c:	80 93 74 00 	sts	0x0074, r24	; 0x800074 <g_shiftRegCodeWord>
 810:	08 95       	ret

00000812 <_Z16LedVoltGreen1Offv>:
 812:	80 91 74 00 	lds	r24, 0x0074	; 0x800074 <g_shiftRegCodeWord>
 816:	90 91 75 00 	lds	r25, 0x0075	; 0x800075 <g_shiftRegCodeWord+0x1>
 81a:	9b 7f       	andi	r25, 0xFB	; 251
 81c:	90 93 75 00 	sts	0x0075, r25	; 0x800075 <g_shiftRegCodeWord+0x1>
 820:	80 93 74 00 	sts	0x0074, r24	; 0x800074 <g_shiftRegCodeWord>
 824:	08 95       	ret

00000826 <_Z16LedVoltYellowOffv>:
 826:	80 91 74 00 	lds	r24, 0x0074	; 0x800074 <g_shiftRegCodeWord>
 82a:	90 91 75 00 	lds	r25, 0x0075	; 0x800075 <g_shiftRegCodeWord+0x1>
 82e:	9f 7e       	andi	r25, 0xEF	; 239
 830:	90 93 75 00 	sts	0x0075, r25	; 0x800075 <g_shiftRegCodeWord+0x1>
 834:	80 93 74 00 	sts	0x0074, r24	; 0x800074 <g_shiftRegCodeWord>
 838:	08 95       	ret

0000083a <_Z13LedVoltRedOffv>:
 83a:	80 91 74 00 	lds	r24, 0x0074	; 0x800074 <g_shiftRegCodeWord>
 83e:	90 91 75 00 	lds	r25, 0x0075	; 0x800075 <g_shiftRegCodeWord+0x1>
 842:	9f 7b       	andi	r25, 0xBF	; 191
 844:	90 93 75 00 	sts	0x0075, r25	; 0x800075 <g_shiftRegCodeWord+0x1>
 848:	80 93 74 00 	sts	0x0074, r24	; 0x800074 <g_shiftRegCodeWord>
 84c:	08 95       	ret

0000084e <_Z16LedCurrGreen2Offv>:
 84e:	80 91 74 00 	lds	r24, 0x0074	; 0x800074 <g_shiftRegCodeWord>
 852:	90 91 75 00 	lds	r25, 0x0075	; 0x800075 <g_shiftRegCodeWord+0x1>
 856:	9f 77       	andi	r25, 0x7F	; 127
 858:	90 93 75 00 	sts	0x0075, r25	; 0x800075 <g_shiftRegCodeWord+0x1>
 85c:	80 93 74 00 	sts	0x0074, r24	; 0x800074 <g_shiftRegCodeWord>
 860:	08 95       	ret

00000862 <_Z16LedCurrGreen1Offv>:
 862:	80 91 74 00 	lds	r24, 0x0074	; 0x800074 <g_shiftRegCodeWord>
 866:	90 91 75 00 	lds	r25, 0x0075	; 0x800075 <g_shiftRegCodeWord+0x1>
 86a:	9f 7d       	andi	r25, 0xDF	; 223
 86c:	90 93 75 00 	sts	0x0075, r25	; 0x800075 <g_shiftRegCodeWord+0x1>
 870:	80 93 74 00 	sts	0x0074, r24	; 0x800074 <g_shiftRegCodeWord>
 874:	08 95       	ret

00000876 <_Z16LedCurrYellowOffv>:
 876:	80 91 74 00 	lds	r24, 0x0074	; 0x800074 <g_shiftRegCodeWord>
 87a:	90 91 75 00 	lds	r25, 0x0075	; 0x800075 <g_shiftRegCodeWord+0x1>
 87e:	97 7f       	andi	r25, 0xF7	; 247
 880:	90 93 75 00 	sts	0x0075, r25	; 0x800075 <g_shiftRegCodeWord+0x1>
 884:	80 93 74 00 	sts	0x0074, r24	; 0x800074 <g_shiftRegCodeWord>
 888:	08 95       	ret

0000088a <_Z13LedCurrRedOffv>:
 88a:	80 91 74 00 	lds	r24, 0x0074	; 0x800074 <g_shiftRegCodeWord>
 88e:	90 91 75 00 	lds	r25, 0x0075	; 0x800075 <g_shiftRegCodeWord+0x1>
 892:	9d 7f       	andi	r25, 0xFD	; 253
 894:	90 93 75 00 	sts	0x0075, r25	; 0x800075 <g_shiftRegCodeWord+0x1>
 898:	80 93 74 00 	sts	0x0074, r24	; 0x800074 <g_shiftRegCodeWord>
 89c:	08 95       	ret

0000089e <_Z10AllLedsOffv>:
 89e:	f5 df       	rcall	.-22     	; 0x88a <_Z13LedCurrRedOffv>
 8a0:	ea df       	rcall	.-44     	; 0x876 <_Z16LedCurrYellowOffv>
 8a2:	df df       	rcall	.-66     	; 0x862 <_Z16LedCurrGreen1Offv>
 8a4:	d4 df       	rcall	.-88     	; 0x84e <_Z16LedCurrGreen2Offv>
 8a6:	c9 df       	rcall	.-110    	; 0x83a <_Z13LedVoltRedOffv>
 8a8:	be df       	rcall	.-132    	; 0x826 <_Z16LedVoltYellowOffv>
 8aa:	b3 df       	rcall	.-154    	; 0x812 <_Z16LedVoltGreen1Offv>
 8ac:	a8 cf       	rjmp	.-176    	; 0x7fe <_Z16LedVoltGreen2Offv>

000008ae <_Z11ClearLedSckv>:
 8ae:	c1 98       	cbi	0x18, 1	; 24
 8b0:	08 95       	ret

000008b2 <_Z21SendShiftRegisterWordj>:
 8b2:	0f 93       	push	r16
 8b4:	1f 93       	push	r17
 8b6:	cf 93       	push	r28
 8b8:	df 93       	push	r29
 8ba:	8c 01       	movw	r16, r24
 8bc:	f8 df       	rcall	.-16     	; 0x8ae <_Z11ClearLedSckv>
 8be:	8c e3       	ldi	r24, 0x3C	; 60
 8c0:	ac dd       	rcall	.-1192   	; 0x41a <_Z13DelayMicroSech>
 8c2:	e8 01       	movw	r28, r16
 8c4:	10 e1       	ldi	r17, 0x10	; 16
 8c6:	d7 ff       	sbrs	r29, 7
 8c8:	02 c0       	rjmp	.+4      	; 0x8ce <_Z21SendShiftRegisterWordj+0x1c>
 8ca:	c0 9a       	sbi	0x18, 0	; 24
 8cc:	01 c0       	rjmp	.+2      	; 0x8d0 <_Z21SendShiftRegisterWordj+0x1e>
 8ce:	c0 98       	cbi	0x18, 0	; 24
 8d0:	c1 9a       	sbi	0x18, 1	; 24
 8d2:	11 50       	subi	r17, 0x01	; 1
 8d4:	21 f0       	breq	.+8      	; 0x8de <_Z21SendShiftRegisterWordj+0x2c>
 8d6:	eb df       	rcall	.-42     	; 0x8ae <_Z11ClearLedSckv>
 8d8:	cc 0f       	add	r28, r28
 8da:	dd 1f       	adc	r29, r29
 8dc:	f4 cf       	rjmp	.-24     	; 0x8c6 <_Z21SendShiftRegisterWordj+0x14>
 8de:	df 91       	pop	r29
 8e0:	cf 91       	pop	r28
 8e2:	1f 91       	pop	r17
 8e4:	0f 91       	pop	r16
 8e6:	08 95       	ret

000008e8 <_Z12ShiftRegInitv>:
 8e8:	e2 df       	rcall	.-60     	; 0x8ae <_Z11ClearLedSckv>
 8ea:	c0 98       	cbi	0x18, 0	; 24
 8ec:	87 b3       	in	r24, 0x17	; 23
 8ee:	83 60       	ori	r24, 0x03	; 3
 8f0:	87 bb       	out	0x17, r24	; 23
 8f2:	80 e0       	ldi	r24, 0x00	; 0
 8f4:	90 e0       	ldi	r25, 0x00	; 0
 8f6:	dd cf       	rjmp	.-70     	; 0x8b2 <_Z21SendShiftRegisterWordj>

000008f8 <_Z12ShiftRegPushv>:
 8f8:	80 91 74 00 	lds	r24, 0x0074	; 0x800074 <g_shiftRegCodeWord>
 8fc:	90 91 75 00 	lds	r25, 0x0075	; 0x800075 <g_shiftRegCodeWord+0x1>
 900:	d8 cf       	rjmp	.-80     	; 0x8b2 <_Z21SendShiftRegisterWordj>

00000902 <GetVoltageLevelsTableSize>:
 902:	8c e0       	ldi	r24, 0x0C	; 12
 904:	08 95       	ret

00000906 <GetVoltageLevelTableValue>:
 906:	e8 2f       	mov	r30, r24
 908:	f0 e0       	ldi	r31, 0x00	; 0
 90a:	ee 0f       	add	r30, r30
 90c:	ff 1f       	adc	r31, r31
 90e:	eb 5b       	subi	r30, 0xBB	; 187
 910:	ff 4f       	sbci	r31, 0xFF	; 255
 912:	85 91       	lpm	r24, Z+
 914:	95 91       	lpm	r25, Z+
 916:	08 95       	ret

00000918 <GetLedFlashingTableValue>:
 918:	e8 2f       	mov	r30, r24
 91a:	f0 e0       	ldi	r31, 0x00	; 0
 91c:	e2 5e       	subi	r30, 0xE2	; 226
 91e:	ff 4f       	sbci	r31, 0xFF	; 255
 920:	84 91       	lpm	r24, Z
 922:	08 95       	ret

00000924 <GetTempSensorTableSize>:
 924:	8e e1       	ldi	r24, 0x1E	; 30
 926:	08 95       	ret

00000928 <GetTempSensorTableAdcValue>:
 928:	90 e0       	ldi	r25, 0x00	; 0
 92a:	63 e0       	ldi	r22, 0x03	; 3
 92c:	70 e0       	ldi	r23, 0x00	; 0
 92e:	18 d0       	rcall	.+48     	; 0x960 <__mulhi3>
 930:	83 5a       	subi	r24, 0xA3	; 163
 932:	9f 4f       	sbci	r25, 0xFF	; 255
 934:	fc 01       	movw	r30, r24
 936:	85 91       	lpm	r24, Z+
 938:	95 91       	lpm	r25, Z+
 93a:	08 95       	ret

0000093c <GetTempSensorTableTemperatureValue>:
 93c:	90 e0       	ldi	r25, 0x00	; 0
 93e:	63 e0       	ldi	r22, 0x03	; 3
 940:	70 e0       	ldi	r23, 0x00	; 0
 942:	0e d0       	rcall	.+28     	; 0x960 <__mulhi3>
 944:	81 5a       	subi	r24, 0xA1	; 161
 946:	9f 4f       	sbci	r25, 0xFF	; 255
 948:	fc 01       	movw	r30, r24
 94a:	84 91       	lpm	r24, Z
 94c:	08 95       	ret

0000094e <__mulqi3>:
 94e:	00 24       	eor	r0, r0

00000950 <__mulqi3_loop>:
 950:	80 fd       	sbrc	r24, 0
 952:	06 0e       	add	r0, r22
 954:	66 0f       	add	r22, r22
 956:	11 f0       	breq	.+4      	; 0x95c <__mulqi3_exit>
 958:	86 95       	lsr	r24
 95a:	d1 f7       	brne	.-12     	; 0x950 <__mulqi3_loop>

0000095c <__mulqi3_exit>:
 95c:	80 2d       	mov	r24, r0
 95e:	08 95       	ret

00000960 <__mulhi3>:
 960:	00 24       	eor	r0, r0
 962:	55 27       	eor	r21, r21
 964:	04 c0       	rjmp	.+8      	; 0x96e <__mulhi3+0xe>
 966:	08 0e       	add	r0, r24
 968:	59 1f       	adc	r21, r25
 96a:	88 0f       	add	r24, r24
 96c:	99 1f       	adc	r25, r25
 96e:	00 97       	sbiw	r24, 0x00	; 0
 970:	29 f0       	breq	.+10     	; 0x97c <__mulhi3+0x1c>
 972:	76 95       	lsr	r23
 974:	67 95       	ror	r22
 976:	b8 f3       	brcs	.-18     	; 0x966 <__mulhi3+0x6>
 978:	71 05       	cpc	r23, r1
 97a:	b9 f7       	brne	.-18     	; 0x96a <__mulhi3+0xa>
 97c:	80 2d       	mov	r24, r0
 97e:	95 2f       	mov	r25, r21
 980:	08 95       	ret

00000982 <__mulsi3>:
 982:	ee 27       	eor	r30, r30
 984:	ff 27       	eor	r31, r31

00000986 <__mulsi3_helper>:
 986:	aa 27       	eor	r26, r26
 988:	bb 27       	eor	r27, r27
 98a:	08 c0       	rjmp	.+16     	; 0x99c <__mulsi3_helper+0x16>
 98c:	a2 0f       	add	r26, r18
 98e:	b3 1f       	adc	r27, r19
 990:	e4 1f       	adc	r30, r20
 992:	f5 1f       	adc	r31, r21
 994:	22 0f       	add	r18, r18
 996:	33 1f       	adc	r19, r19
 998:	44 1f       	adc	r20, r20
 99a:	55 1f       	adc	r21, r21
 99c:	96 95       	lsr	r25
 99e:	87 95       	ror	r24
 9a0:	77 95       	ror	r23
 9a2:	67 95       	ror	r22
 9a4:	98 f3       	brcs	.-26     	; 0x98c <__mulsi3_helper+0x6>
 9a6:	70 40       	sbci	r23, 0x00	; 0
 9a8:	a9 f7       	brne	.-22     	; 0x994 <__mulsi3_helper+0xe>
 9aa:	00 97       	sbiw	r24, 0x00	; 0
 9ac:	99 f7       	brne	.-26     	; 0x994 <__mulsi3_helper+0xe>
 9ae:	bd 01       	movw	r22, r26
 9b0:	cf 01       	movw	r24, r30
 9b2:	08 95       	ret

000009b4 <__udivmodhi4>:
 9b4:	aa 1b       	sub	r26, r26
 9b6:	bb 1b       	sub	r27, r27
 9b8:	51 e1       	ldi	r21, 0x11	; 17
 9ba:	07 c0       	rjmp	.+14     	; 0x9ca <__udivmodhi4_ep>

000009bc <__udivmodhi4_loop>:
 9bc:	aa 1f       	adc	r26, r26
 9be:	bb 1f       	adc	r27, r27
 9c0:	a6 17       	cp	r26, r22
 9c2:	b7 07       	cpc	r27, r23
 9c4:	10 f0       	brcs	.+4      	; 0x9ca <__udivmodhi4_ep>
 9c6:	a6 1b       	sub	r26, r22
 9c8:	b7 0b       	sbc	r27, r23

000009ca <__udivmodhi4_ep>:
 9ca:	88 1f       	adc	r24, r24
 9cc:	99 1f       	adc	r25, r25
 9ce:	5a 95       	dec	r21
 9d0:	a9 f7       	brne	.-22     	; 0x9bc <__udivmodhi4_loop>
 9d2:	80 95       	com	r24
 9d4:	90 95       	com	r25
 9d6:	bc 01       	movw	r22, r24
 9d8:	cd 01       	movw	r24, r26
 9da:	08 95       	ret

000009dc <__udivmodsi4>:
 9dc:	a1 e2       	ldi	r26, 0x21	; 33
 9de:	1a 2e       	mov	r1, r26
 9e0:	aa 1b       	sub	r26, r26
 9e2:	bb 1b       	sub	r27, r27
 9e4:	fd 01       	movw	r30, r26
 9e6:	0d c0       	rjmp	.+26     	; 0xa02 <__udivmodsi4_ep>

000009e8 <__udivmodsi4_loop>:
 9e8:	aa 1f       	adc	r26, r26
 9ea:	bb 1f       	adc	r27, r27
 9ec:	ee 1f       	adc	r30, r30
 9ee:	ff 1f       	adc	r31, r31
 9f0:	a2 17       	cp	r26, r18
 9f2:	b3 07       	cpc	r27, r19
 9f4:	e4 07       	cpc	r30, r20
 9f6:	f5 07       	cpc	r31, r21
 9f8:	20 f0       	brcs	.+8      	; 0xa02 <__udivmodsi4_ep>
 9fa:	a2 1b       	sub	r26, r18
 9fc:	b3 0b       	sbc	r27, r19
 9fe:	e4 0b       	sbc	r30, r20
 a00:	f5 0b       	sbc	r31, r21

00000a02 <__udivmodsi4_ep>:
 a02:	66 1f       	adc	r22, r22
 a04:	77 1f       	adc	r23, r23
 a06:	88 1f       	adc	r24, r24
 a08:	99 1f       	adc	r25, r25
 a0a:	1a 94       	dec	r1
 a0c:	69 f7       	brne	.-38     	; 0x9e8 <__udivmodsi4_loop>
 a0e:	60 95       	com	r22
 a10:	70 95       	com	r23
 a12:	80 95       	com	r24
 a14:	90 95       	com	r25
 a16:	9b 01       	movw	r18, r22
 a18:	ac 01       	movw	r20, r24
 a1a:	bd 01       	movw	r22, r26
 a1c:	cf 01       	movw	r24, r30
 a1e:	08 95       	ret

00000a20 <__tablejump2__>:
 a20:	ee 0f       	add	r30, r30
 a22:	ff 1f       	adc	r31, r31
 a24:	05 90       	lpm	r0, Z+
 a26:	f4 91       	lpm	r31, Z
 a28:	e0 2d       	mov	r30, r0
 a2a:	09 94       	ijmp

00000a2c <_exit>:
 a2c:	f8 94       	cli

00000a2e <__stop_program>:
 a2e:	ff cf       	rjmp	.-2      	; 0xa2e <__stop_program>
