
CurrentSensor.elf:     file format elf32-avr

Sections:
Idx Name          Size      VMA       LMA       File off  Algn
  0 .text         0000054c  00000000  00000000  00000054  2**1
                  CONTENTS, ALLOC, LOAD, READONLY, CODE
  1 .data         00000000  00800060  00800060  000005a0  2**0
                  CONTENTS, ALLOC, LOAD, DATA
  2 .comment      00000030  00000000  00000000  000005a0  2**0
                  CONTENTS, READONLY
  3 .note.gnu.avr.deviceinfo 0000003c  00000000  00000000  000005d0  2**2
                  CONTENTS, READONLY
  4 .debug_info   00000420  00000000  00000000  0000060c  2**0
                  CONTENTS, READONLY, DEBUGGING
  5 .debug_abbrev 000003e8  00000000  00000000  00000a2c  2**0
                  CONTENTS, READONLY, DEBUGGING
  6 .debug_line   000000f2  00000000  00000000  00000e14  2**0
                  CONTENTS, READONLY, DEBUGGING
  7 .debug_str    00000169  00000000  00000000  00000f06  2**0
                  CONTENTS, READONLY, DEBUGGING

Disassembly of section .text:

00000000 <__vectors>:
   0:	0e c0       	rjmp	.+28     	; 0x1e <__ctors_end>
   2:	15 c0       	rjmp	.+42     	; 0x2e <__bad_interrupt>
   4:	14 c0       	rjmp	.+40     	; 0x2e <__bad_interrupt>
   6:	13 c0       	rjmp	.+38     	; 0x2e <__bad_interrupt>
   8:	12 c0       	rjmp	.+36     	; 0x2e <__bad_interrupt>
   a:	11 c0       	rjmp	.+34     	; 0x2e <__bad_interrupt>
   c:	10 c0       	rjmp	.+32     	; 0x2e <__bad_interrupt>
   e:	0f c0       	rjmp	.+30     	; 0x2e <__bad_interrupt>
  10:	0e c0       	rjmp	.+28     	; 0x2e <__bad_interrupt>
  12:	0d c0       	rjmp	.+26     	; 0x2e <__bad_interrupt>
  14:	0c c0       	rjmp	.+24     	; 0x2e <__bad_interrupt>
  16:	0b c0       	rjmp	.+22     	; 0x2e <__bad_interrupt>
  18:	0a c0       	rjmp	.+20     	; 0x2e <__bad_interrupt>
  1a:	09 c0       	rjmp	.+18     	; 0x2e <__bad_interrupt>
  1c:	08 c0       	rjmp	.+16     	; 0x2e <__bad_interrupt>

0000001e <__ctors_end>:
  1e:	11 24       	eor	r1, r1
  20:	1f be       	out	0x3f, r1	; 63
  22:	cf e5       	ldi	r28, 0x5F	; 95
  24:	d1 e0       	ldi	r29, 0x01	; 1
  26:	de bf       	out	0x3e, r29	; 62
  28:	cd bf       	out	0x3d, r28	; 61
  2a:	d7 d1       	rcall	.+942    	; 0x3da <main>
  2c:	8d c2       	rjmp	.+1306   	; 0x548 <_exit>

0000002e <__bad_interrupt>:
  2e:	e8 cf       	rjmp	.-48     	; 0x0 <__vectors>

00000030 <DelayMicroSec>:
  30:	88 23       	and	r24, r24
  32:	39 f0       	breq	.+14     	; 0x42 <__SREG__+0x3>
	...
  3c:	00 00       	nop
  3e:	81 50       	subi	r24, 0x01	; 1
  40:	f7 cf       	rjmp	.-18     	; 0x30 <DelayMicroSec>
  42:	08 95       	ret

00000044 <DelayMiliSec>:
  44:	cf 93       	push	r28
  46:	df 93       	push	r29
  48:	ec 01       	movw	r28, r24
  4a:	20 97       	sbiw	r28, 0x00	; 0
  4c:	51 f0       	breq	.+20     	; 0x62 <DelayMiliSec+0x1e>
  4e:	8a ef       	ldi	r24, 0xFA	; 250
  50:	ef df       	rcall	.-34     	; 0x30 <DelayMicroSec>
  52:	8a ef       	ldi	r24, 0xFA	; 250
  54:	ed df       	rcall	.-38     	; 0x30 <DelayMicroSec>
  56:	8a ef       	ldi	r24, 0xFA	; 250
  58:	eb df       	rcall	.-42     	; 0x30 <DelayMicroSec>
  5a:	8a ef       	ldi	r24, 0xFA	; 250
  5c:	e9 df       	rcall	.-46     	; 0x30 <DelayMicroSec>
  5e:	21 97       	sbiw	r28, 0x01	; 1
  60:	f4 cf       	rjmp	.-24     	; 0x4a <DelayMiliSec+0x6>
  62:	df 91       	pop	r29
  64:	cf 91       	pop	r28
  66:	08 95       	ret

00000068 <InitCurrentSensorADC>:
  68:	87 b3       	in	r24, 0x17	; 23
  6a:	87 7e       	andi	r24, 0xE7	; 231
  6c:	87 bb       	out	0x17, r24	; 23
  6e:	88 b3       	in	r24, 0x18	; 24
  70:	87 7e       	andi	r24, 0xE7	; 231
  72:	88 bb       	out	0x18, r24	; 24
  74:	87 e0       	ldi	r24, 0x07	; 7
  76:	87 b9       	out	0x07, r24	; 7
  78:	86 e9       	ldi	r24, 0x96	; 150
  7a:	86 b9       	out	0x06, r24	; 6
  7c:	83 b1       	in	r24, 0x03	; 3
  7e:	80 74       	andi	r24, 0x40	; 64
  80:	83 b9       	out	0x03, r24	; 3
  82:	84 b3       	in	r24, 0x14	; 20
  84:	88 61       	ori	r24, 0x18	; 24
  86:	84 bb       	out	0x14, r24	; 20
  88:	08 95       	ret

0000008a <InitVoltageADC>:
  8a:	ba 98       	cbi	0x17, 2	; 23
  8c:	c2 98       	cbi	0x18, 2	; 24
  8e:	81 e0       	ldi	r24, 0x01	; 1
  90:	87 b9       	out	0x07, r24	; 7
  92:	86 e9       	ldi	r24, 0x96	; 150
  94:	86 b9       	out	0x06, r24	; 6
  96:	83 b1       	in	r24, 0x03	; 3
  98:	80 74       	andi	r24, 0x40	; 64
  9a:	83 b9       	out	0x03, r24	; 3
  9c:	a2 9a       	sbi	0x14, 2	; 20
  9e:	08 95       	ret

000000a0 <StartAdcConversion>:
  a0:	34 9a       	sbi	0x06, 4	; 6
  a2:	36 9a       	sbi	0x06, 6	; 6
  a4:	34 9b       	sbis	0x06, 4	; 6
  a6:	fe cf       	rjmp	.-4      	; 0xa4 <StartAdcConversion+0x4>
  a8:	34 9a       	sbi	0x06, 4	; 6
  aa:	24 b1       	in	r18, 0x04	; 4
  ac:	85 b1       	in	r24, 0x05	; 5
  ae:	90 e0       	ldi	r25, 0x00	; 0
  b0:	98 2f       	mov	r25, r24
  b2:	88 27       	eor	r24, r24
  b4:	82 0f       	add	r24, r18
  b6:	91 1d       	adc	r25, r1
  b8:	08 95       	ret

000000ba <GetVoltageAdcValueInMv>:
  ba:	cf 92       	push	r12
  bc:	df 92       	push	r13
  be:	ef 92       	push	r14
  c0:	ff 92       	push	r15
  c2:	0f 93       	push	r16
  c4:	1f 93       	push	r17
  c6:	cf 93       	push	r28
  c8:	df 93       	push	r29
  ca:	8c 01       	movw	r16, r24
  cc:	06 35       	cpi	r16, 0x56	; 86
  ce:	81 e2       	ldi	r24, 0x21	; 33
  d0:	18 07       	cpc	r17, r24
  d2:	10 f0       	brcs	.+4      	; 0xd8 <GetVoltageAdcValueInMv+0x1e>
  d4:	05 e5       	ldi	r16, 0x55	; 85
  d6:	11 e2       	ldi	r17, 0x21	; 33
  d8:	d8 df       	rcall	.-80     	; 0x8a <InitVoltageADC>
  da:	e2 df       	rcall	.-60     	; 0xa0 <StartAdcConversion>
  dc:	e8 01       	movw	r28, r16
  de:	c1 2c       	mov	r12, r1
  e0:	d1 2c       	mov	r13, r1
  e2:	76 01       	movw	r14, r12
  e4:	20 97       	sbiw	r28, 0x00	; 0
  e6:	39 f0       	breq	.+14     	; 0xf6 <GetVoltageAdcValueInMv+0x3c>
  e8:	db df       	rcall	.-74     	; 0xa0 <StartAdcConversion>
  ea:	c8 0e       	add	r12, r24
  ec:	d9 1e       	adc	r13, r25
  ee:	e1 1c       	adc	r14, r1
  f0:	f1 1c       	adc	r15, r1
  f2:	21 97       	sbiw	r28, 0x01	; 1
  f4:	f7 cf       	rjmp	.-18     	; 0xe4 <GetVoltageAdcValueInMv+0x2a>
  f6:	2c ee       	ldi	r18, 0xEC	; 236
  f8:	31 e0       	ldi	r19, 0x01	; 1
  fa:	40 e0       	ldi	r20, 0x00	; 0
  fc:	50 e0       	ldi	r21, 0x00	; 0
  fe:	c7 01       	movw	r24, r14
 100:	b6 01       	movw	r22, r12
 102:	b4 d1       	rcall	.+872    	; 0x46c <__mulsi3>
 104:	29 e1       	ldi	r18, 0x19	; 25
 106:	30 e0       	ldi	r19, 0x00	; 0
 108:	40 e0       	ldi	r20, 0x00	; 0
 10a:	50 e0       	ldi	r21, 0x00	; 0
 10c:	e7 d1       	rcall	.+974    	; 0x4dc <__udivmodsi4>
 10e:	ca 01       	movw	r24, r20
 110:	b9 01       	movw	r22, r18
 112:	98 01       	movw	r18, r16
 114:	40 e0       	ldi	r20, 0x00	; 0
 116:	50 e0       	ldi	r21, 0x00	; 0
 118:	e1 d1       	rcall	.+962    	; 0x4dc <__udivmodsi4>
 11a:	c9 01       	movw	r24, r18
 11c:	df 91       	pop	r29
 11e:	cf 91       	pop	r28
 120:	1f 91       	pop	r17
 122:	0f 91       	pop	r16
 124:	ff 90       	pop	r15
 126:	ef 90       	pop	r14
 128:	df 90       	pop	r13
 12a:	cf 90       	pop	r12
 12c:	08 95       	ret

0000012e <GetCurrentInMa>:
 12e:	cf 92       	push	r12
 130:	df 92       	push	r13
 132:	ef 92       	push	r14
 134:	ff 92       	push	r15
 136:	0f 93       	push	r16
 138:	1f 93       	push	r17
 13a:	cf 93       	push	r28
 13c:	df 93       	push	r29
 13e:	8c 01       	movw	r16, r24
 140:	09 3f       	cpi	r16, 0xF9	; 249
 142:	87 ea       	ldi	r24, 0xA7	; 167
 144:	18 07       	cpc	r17, r24
 146:	10 f0       	brcs	.+4      	; 0x14c <GetCurrentInMa+0x1e>
 148:	08 ef       	ldi	r16, 0xF8	; 248
 14a:	17 ea       	ldi	r17, 0xA7	; 167
 14c:	8d df       	rcall	.-230    	; 0x68 <InitCurrentSensorADC>
 14e:	a8 df       	rcall	.-176    	; 0xa0 <StartAdcConversion>
 150:	e8 01       	movw	r28, r16
 152:	c1 2c       	mov	r12, r1
 154:	d1 2c       	mov	r13, r1
 156:	76 01       	movw	r14, r12
 158:	20 97       	sbiw	r28, 0x00	; 0
 15a:	39 f0       	breq	.+14     	; 0x16a <__stack+0xb>
 15c:	a1 df       	rcall	.-190    	; 0xa0 <StartAdcConversion>
 15e:	c8 0e       	add	r12, r24
 160:	d9 1e       	adc	r13, r25
 162:	e1 1c       	adc	r14, r1
 164:	f1 1c       	adc	r15, r1
 166:	21 97       	sbiw	r28, 0x01	; 1
 168:	f7 cf       	rjmp	.-18     	; 0x158 <GetCurrentInMa+0x2a>
 16a:	21 e6       	ldi	r18, 0x61	; 97
 16c:	30 e0       	ldi	r19, 0x00	; 0
 16e:	40 e0       	ldi	r20, 0x00	; 0
 170:	50 e0       	ldi	r21, 0x00	; 0
 172:	c7 01       	movw	r24, r14
 174:	b6 01       	movw	r22, r12
 176:	7a d1       	rcall	.+756    	; 0x46c <__mulsi3>
 178:	28 e2       	ldi	r18, 0x28	; 40
 17a:	30 e0       	ldi	r19, 0x00	; 0
 17c:	40 e0       	ldi	r20, 0x00	; 0
 17e:	50 e0       	ldi	r21, 0x00	; 0
 180:	ad d1       	rcall	.+858    	; 0x4dc <__udivmodsi4>
 182:	ca 01       	movw	r24, r20
 184:	b9 01       	movw	r22, r18
 186:	98 01       	movw	r18, r16
 188:	40 e0       	ldi	r20, 0x00	; 0
 18a:	50 e0       	ldi	r21, 0x00	; 0
 18c:	a7 d1       	rcall	.+846    	; 0x4dc <__udivmodsi4>
 18e:	c9 01       	movw	r24, r18
 190:	df 91       	pop	r29
 192:	cf 91       	pop	r28
 194:	1f 91       	pop	r17
 196:	0f 91       	pop	r16
 198:	ff 90       	pop	r15
 19a:	ef 90       	pop	r14
 19c:	df 90       	pop	r13
 19e:	cf 90       	pop	r12
 1a0:	08 95       	ret

000001a2 <LedLatchDelay>:
 1a2:	96 e0       	ldi	r25, 0x06	; 6
 1a4:	84 e6       	ldi	r24, 0x64	; 100
	...
 1b2:	81 50       	subi	r24, 0x01	; 1
 1b4:	c1 f7       	brne	.-16     	; 0x1a6 <LedLatchDelay+0x4>
 1b6:	91 50       	subi	r25, 0x01	; 1
 1b8:	a9 f7       	brne	.-22     	; 0x1a4 <LedLatchDelay+0x2>
 1ba:	08 95       	ret

000001bc <SendLedByte>:
 1bc:	cf 93       	push	r28
 1be:	c8 2f       	mov	r28, r24
 1c0:	c1 98       	cbi	0x18, 1	; 24
 1c2:	ef df       	rcall	.-34     	; 0x1a2 <LedLatchDelay>
 1c4:	8c 2f       	mov	r24, r28
 1c6:	98 e0       	ldi	r25, 0x08	; 8
 1c8:	87 ff       	sbrs	r24, 7
 1ca:	02 c0       	rjmp	.+4      	; 0x1d0 <SendLedByte+0x14>
 1cc:	c0 9a       	sbi	0x18, 0	; 24
 1ce:	01 c0       	rjmp	.+2      	; 0x1d2 <SendLedByte+0x16>
 1d0:	c0 98       	cbi	0x18, 0	; 24
 1d2:	00 00       	nop
 1d4:	00 00       	nop
 1d6:	c1 9a       	sbi	0x18, 1	; 24
 1d8:	91 50       	subi	r25, 0x01	; 1
 1da:	29 f0       	breq	.+10     	; 0x1e6 <SendLedByte+0x2a>
 1dc:	00 00       	nop
 1de:	00 00       	nop
 1e0:	c1 98       	cbi	0x18, 1	; 24
 1e2:	88 0f       	add	r24, r24
 1e4:	f1 cf       	rjmp	.-30     	; 0x1c8 <SendLedByte+0xc>
 1e6:	dd df       	rcall	.-70     	; 0x1a2 <LedLatchDelay>
 1e8:	c1 98       	cbi	0x18, 1	; 24
 1ea:	cf 91       	pop	r28
 1ec:	08 95       	ret

000001ee <InitLeds>:
 1ee:	c1 98       	cbi	0x18, 1	; 24
 1f0:	c0 98       	cbi	0x18, 0	; 24
 1f2:	87 b3       	in	r24, 0x17	; 23
 1f4:	83 60       	ori	r24, 0x03	; 3
 1f6:	87 bb       	out	0x17, r24	; 23
 1f8:	80 e0       	ldi	r24, 0x00	; 0
 1fa:	e0 cf       	rjmp	.-64     	; 0x1bc <SendLedByte>

000001fc <UpdateLedsState>:
 1fc:	98 2f       	mov	r25, r24
 1fe:	80 ff       	sbrs	r24, 0
 200:	02 c0       	rjmp	.+4      	; 0x206 <UpdateLedsState+0xa>
 202:	80 e4       	ldi	r24, 0x40	; 64
 204:	01 c0       	rjmp	.+2      	; 0x208 <UpdateLedsState+0xc>
 206:	80 e0       	ldi	r24, 0x00	; 0
 208:	91 fd       	sbrc	r25, 1
 20a:	80 62       	ori	r24, 0x20	; 32
 20c:	92 fd       	sbrc	r25, 2
 20e:	84 60       	ori	r24, 0x04	; 4
 210:	93 fd       	sbrc	r25, 3
 212:	81 60       	ori	r24, 0x01	; 1
 214:	60 fd       	sbrc	r22, 0
 216:	80 68       	ori	r24, 0x80	; 128
 218:	61 fd       	sbrc	r22, 1
 21a:	80 61       	ori	r24, 0x10	; 16
 21c:	62 fd       	sbrc	r22, 2
 21e:	88 60       	ori	r24, 0x08	; 8
 220:	63 fd       	sbrc	r22, 3
 222:	82 60       	ori	r24, 0x02	; 2
 224:	cb cf       	rjmp	.-106    	; 0x1bc <SendLedByte>

00000226 <GetCurrentLedLevel>:
 226:	9b 01       	movw	r18, r22
 228:	2c 59       	subi	r18, 0x9C	; 156
 22a:	3f 4f       	sbci	r19, 0xFF	; 255
 22c:	82 17       	cp	r24, r18
 22e:	93 07       	cpc	r25, r19
 230:	c8 f1       	brcs	.+114    	; 0x2a4 <GetCurrentLedLevel+0x7e>
 232:	2c 59       	subi	r18, 0x9C	; 156
 234:	3f 4f       	sbci	r19, 0xFF	; 255
 236:	82 17       	cp	r24, r18
 238:	93 07       	cpc	r25, r19
 23a:	b0 f1       	brcs	.+108    	; 0x2a8 <GetCurrentLedLevel+0x82>
 23c:	2c 59       	subi	r18, 0x9C	; 156
 23e:	3f 4f       	sbci	r19, 0xFF	; 255
 240:	82 17       	cp	r24, r18
 242:	93 07       	cpc	r25, r19
 244:	98 f1       	brcs	.+102    	; 0x2ac <GetCurrentLedLevel+0x86>
 246:	2c 59       	subi	r18, 0x9C	; 156
 248:	3f 4f       	sbci	r19, 0xFF	; 255
 24a:	82 17       	cp	r24, r18
 24c:	93 07       	cpc	r25, r19
 24e:	80 f1       	brcs	.+96     	; 0x2b0 <GetCurrentLedLevel+0x8a>
 250:	2c 59       	subi	r18, 0x9C	; 156
 252:	3f 4f       	sbci	r19, 0xFF	; 255
 254:	82 17       	cp	r24, r18
 256:	93 07       	cpc	r25, r19
 258:	68 f1       	brcs	.+90     	; 0x2b4 <GetCurrentLedLevel+0x8e>
 25a:	2c 59       	subi	r18, 0x9C	; 156
 25c:	3f 4f       	sbci	r19, 0xFF	; 255
 25e:	82 17       	cp	r24, r18
 260:	93 07       	cpc	r25, r19
 262:	50 f1       	brcs	.+84     	; 0x2b8 <GetCurrentLedLevel+0x92>
 264:	2c 59       	subi	r18, 0x9C	; 156
 266:	3f 4f       	sbci	r19, 0xFF	; 255
 268:	82 17       	cp	r24, r18
 26a:	93 07       	cpc	r25, r19
 26c:	38 f1       	brcs	.+78     	; 0x2bc <GetCurrentLedLevel+0x96>
 26e:	2c 59       	subi	r18, 0x9C	; 156
 270:	3f 4f       	sbci	r19, 0xFF	; 255
 272:	82 17       	cp	r24, r18
 274:	93 07       	cpc	r25, r19
 276:	20 f1       	brcs	.+72     	; 0x2c0 <GetCurrentLedLevel+0x9a>
 278:	2c 59       	subi	r18, 0x9C	; 156
 27a:	3f 4f       	sbci	r19, 0xFF	; 255
 27c:	82 17       	cp	r24, r18
 27e:	93 07       	cpc	r25, r19
 280:	08 f1       	brcs	.+66     	; 0x2c4 <GetCurrentLedLevel+0x9e>
 282:	2c 59       	subi	r18, 0x9C	; 156
 284:	3f 4f       	sbci	r19, 0xFF	; 255
 286:	82 17       	cp	r24, r18
 288:	93 07       	cpc	r25, r19
 28a:	f0 f0       	brcs	.+60     	; 0x2c8 <GetCurrentLedLevel+0xa2>
 28c:	2c 59       	subi	r18, 0x9C	; 156
 28e:	3f 4f       	sbci	r19, 0xFF	; 255
 290:	82 17       	cp	r24, r18
 292:	93 07       	cpc	r25, r19
 294:	d8 f0       	brcs	.+54     	; 0x2cc <GetCurrentLedLevel+0xa6>
 296:	60 55       	subi	r22, 0x50	; 80
 298:	7b 4f       	sbci	r23, 0xFB	; 251
 29a:	86 17       	cp	r24, r22
 29c:	97 07       	cpc	r25, r23
 29e:	c0 f0       	brcs	.+48     	; 0x2d0 <GetCurrentLedLevel+0xaa>
 2a0:	8c e0       	ldi	r24, 0x0C	; 12
 2a2:	08 95       	ret
 2a4:	80 e0       	ldi	r24, 0x00	; 0
 2a6:	08 95       	ret
 2a8:	81 e0       	ldi	r24, 0x01	; 1
 2aa:	08 95       	ret
 2ac:	82 e0       	ldi	r24, 0x02	; 2
 2ae:	08 95       	ret
 2b0:	83 e0       	ldi	r24, 0x03	; 3
 2b2:	08 95       	ret
 2b4:	84 e0       	ldi	r24, 0x04	; 4
 2b6:	08 95       	ret
 2b8:	85 e0       	ldi	r24, 0x05	; 5
 2ba:	08 95       	ret
 2bc:	86 e0       	ldi	r24, 0x06	; 6
 2be:	08 95       	ret
 2c0:	87 e0       	ldi	r24, 0x07	; 7
 2c2:	08 95       	ret
 2c4:	88 e0       	ldi	r24, 0x08	; 8
 2c6:	08 95       	ret
 2c8:	89 e0       	ldi	r24, 0x09	; 9
 2ca:	08 95       	ret
 2cc:	8a e0       	ldi	r24, 0x0A	; 10
 2ce:	08 95       	ret
 2d0:	8b e0       	ldi	r24, 0x0B	; 11
 2d2:	08 95       	ret

000002d4 <GetVoltageLedLevel>:
 2d4:	9b 01       	movw	r18, r22
 2d6:	20 5f       	subi	r18, 0xF0	; 240
 2d8:	38 4d       	sbci	r19, 0xD8	; 216
 2da:	82 17       	cp	r24, r18
 2dc:	93 07       	cpc	r25, r19
 2de:	c8 f1       	brcs	.+114    	; 0x352 <GetVoltageLedLevel+0x7e>
 2e0:	23 5b       	subi	r18, 0xB3	; 179
 2e2:	3e 4f       	sbci	r19, 0xFE	; 254
 2e4:	82 17       	cp	r24, r18
 2e6:	93 07       	cpc	r25, r19
 2e8:	b0 f1       	brcs	.+108    	; 0x356 <GetVoltageLedLevel+0x82>
 2ea:	23 5b       	subi	r18, 0xB3	; 179
 2ec:	3e 4f       	sbci	r19, 0xFE	; 254
 2ee:	82 17       	cp	r24, r18
 2f0:	93 07       	cpc	r25, r19
 2f2:	98 f1       	brcs	.+102    	; 0x35a <GetVoltageLedLevel+0x86>
 2f4:	22 5b       	subi	r18, 0xB2	; 178
 2f6:	3e 4f       	sbci	r19, 0xFE	; 254
 2f8:	82 17       	cp	r24, r18
 2fa:	93 07       	cpc	r25, r19
 2fc:	80 f1       	brcs	.+96     	; 0x35e <GetVoltageLedLevel+0x8a>
 2fe:	28 53       	subi	r18, 0x38	; 56
 300:	3f 4f       	sbci	r19, 0xFF	; 255
 302:	82 17       	cp	r24, r18
 304:	93 07       	cpc	r25, r19
 306:	68 f1       	brcs	.+90     	; 0x362 <GetVoltageLedLevel+0x8e>
 308:	28 53       	subi	r18, 0x38	; 56
 30a:	3f 4f       	sbci	r19, 0xFF	; 255
 30c:	82 17       	cp	r24, r18
 30e:	93 07       	cpc	r25, r19
 310:	50 f1       	brcs	.+84     	; 0x366 <GetVoltageLedLevel+0x92>
 312:	28 53       	subi	r18, 0x38	; 56
 314:	3f 4f       	sbci	r19, 0xFF	; 255
 316:	82 17       	cp	r24, r18
 318:	93 07       	cpc	r25, r19
 31a:	38 f1       	brcs	.+78     	; 0x36a <GetVoltageLedLevel+0x96>
 31c:	28 53       	subi	r18, 0x38	; 56
 31e:	3f 4f       	sbci	r19, 0xFF	; 255
 320:	82 17       	cp	r24, r18
 322:	93 07       	cpc	r25, r19
 324:	20 f1       	brcs	.+72     	; 0x36e <GetVoltageLedLevel+0x9a>
 326:	28 53       	subi	r18, 0x38	; 56
 328:	3f 4f       	sbci	r19, 0xFF	; 255
 32a:	82 17       	cp	r24, r18
 32c:	93 07       	cpc	r25, r19
 32e:	08 f1       	brcs	.+66     	; 0x372 <GetVoltageLedLevel+0x9e>
 330:	28 53       	subi	r18, 0x38	; 56
 332:	3f 4f       	sbci	r19, 0xFF	; 255
 334:	82 17       	cp	r24, r18
 336:	93 07       	cpc	r25, r19
 338:	f0 f0       	brcs	.+60     	; 0x376 <GetVoltageLedLevel+0xa2>
 33a:	28 53       	subi	r18, 0x38	; 56
 33c:	3f 4f       	sbci	r19, 0xFF	; 255
 33e:	82 17       	cp	r24, r18
 340:	93 07       	cpc	r25, r19
 342:	d8 f0       	brcs	.+54     	; 0x37a <GetVoltageLedLevel+0xa6>
 344:	68 5c       	subi	r22, 0xC8	; 200
 346:	7e 4c       	sbci	r23, 0xCE	; 206
 348:	86 17       	cp	r24, r22
 34a:	97 07       	cpc	r25, r23
 34c:	c0 f0       	brcs	.+48     	; 0x37e <GetVoltageLedLevel+0xaa>
 34e:	8c e0       	ldi	r24, 0x0C	; 12
 350:	08 95       	ret
 352:	80 e0       	ldi	r24, 0x00	; 0
 354:	08 95       	ret
 356:	81 e0       	ldi	r24, 0x01	; 1
 358:	08 95       	ret
 35a:	82 e0       	ldi	r24, 0x02	; 2
 35c:	08 95       	ret
 35e:	83 e0       	ldi	r24, 0x03	; 3
 360:	08 95       	ret
 362:	84 e0       	ldi	r24, 0x04	; 4
 364:	08 95       	ret
 366:	85 e0       	ldi	r24, 0x05	; 5
 368:	08 95       	ret
 36a:	86 e0       	ldi	r24, 0x06	; 6
 36c:	08 95       	ret
 36e:	87 e0       	ldi	r24, 0x07	; 7
 370:	08 95       	ret
 372:	88 e0       	ldi	r24, 0x08	; 8
 374:	08 95       	ret
 376:	89 e0       	ldi	r24, 0x09	; 9
 378:	08 95       	ret
 37a:	8a e0       	ldi	r24, 0x0A	; 10
 37c:	08 95       	ret
 37e:	8b e0       	ldi	r24, 0x0B	; 11
 380:	08 95       	ret

00000382 <ConvertLevelToBitsAndFlashCount>:
 382:	28 2f       	mov	r18, r24
 384:	fb 01       	movw	r30, r22
 386:	90 e0       	ldi	r25, 0x00	; 0
 388:	02 96       	adiw	r24, 0x02	; 2
 38a:	63 e0       	ldi	r22, 0x03	; 3
 38c:	70 e0       	ldi	r23, 0x00	; 0
 38e:	93 d0       	rcall	.+294    	; 0x4b6 <__divmodhi4>
 390:	36 2f       	mov	r19, r22
 392:	8f e0       	ldi	r24, 0x0F	; 15
 394:	90 e0       	ldi	r25, 0x00	; 0
 396:	02 c0       	rjmp	.+4      	; 0x39c <ConvertLevelToBitsAndFlashCount+0x1a>
 398:	88 0f       	add	r24, r24
 39a:	99 1f       	adc	r25, r25
 39c:	6a 95       	dec	r22
 39e:	e2 f7       	brpl	.-8      	; 0x398 <ConvertLevelToBitsAndFlashCount+0x16>
 3a0:	44 e0       	ldi	r20, 0x04	; 4
 3a2:	95 95       	asr	r25
 3a4:	87 95       	ror	r24
 3a6:	4a 95       	dec	r20
 3a8:	e1 f7       	brne	.-8      	; 0x3a2 <ConvertLevelToBitsAndFlashCount+0x20>
 3aa:	80 83       	st	Z, r24
 3ac:	82 2f       	mov	r24, r18
 3ae:	63 e0       	ldi	r22, 0x03	; 3
 3b0:	76 d0       	rcall	.+236    	; 0x49e <__udivmodqi4>
 3b2:	29 2f       	mov	r18, r25
 3b4:	99 23       	and	r25, r25
 3b6:	69 f0       	breq	.+26     	; 0x3d2 <ConvertLevelToBitsAndFlashCount+0x50>
 3b8:	88 e0       	ldi	r24, 0x08	; 8
 3ba:	90 e0       	ldi	r25, 0x00	; 0
 3bc:	02 c0       	rjmp	.+4      	; 0x3c2 <ConvertLevelToBitsAndFlashCount+0x40>
 3be:	88 0f       	add	r24, r24
 3c0:	99 1f       	adc	r25, r25
 3c2:	3a 95       	dec	r19
 3c4:	e2 f7       	brpl	.-8      	; 0x3be <ConvertLevelToBitsAndFlashCount+0x3c>
 3c6:	34 e0       	ldi	r19, 0x04	; 4
 3c8:	95 95       	asr	r25
 3ca:	87 95       	ror	r24
 3cc:	3a 95       	dec	r19
 3ce:	e1 f7       	brne	.-8      	; 0x3c8 <ConvertLevelToBitsAndFlashCount+0x46>
 3d0:	01 c0       	rjmp	.+2      	; 0x3d4 <ConvertLevelToBitsAndFlashCount+0x52>
 3d2:	80 e0       	ldi	r24, 0x00	; 0
 3d4:	81 83       	std	Z+1, r24	; 0x01
 3d6:	22 83       	std	Z+2, r18	; 0x02
 3d8:	08 95       	ret

000003da <main>:
 3da:	cf 93       	push	r28
 3dc:	df 93       	push	r29
 3de:	00 d0       	rcall	.+0      	; 0x3e0 <main+0x6>
 3e0:	00 d0       	rcall	.+0      	; 0x3e2 <main+0x8>
 3e2:	00 d0       	rcall	.+0      	; 0x3e4 <main+0xa>
 3e4:	cd b7       	in	r28, 0x3d	; 61
 3e6:	de b7       	in	r29, 0x3e	; 62
 3e8:	02 df       	rcall	.-508    	; 0x1ee <InitLeds>
 3ea:	88 ee       	ldi	r24, 0xE8	; 232
 3ec:	93 e0       	ldi	r25, 0x03	; 3
 3ee:	65 de       	rcall	.-822    	; 0xba <GetVoltageAdcValueInMv>
 3f0:	7c 01       	movw	r14, r24
 3f2:	88 ee       	ldi	r24, 0xE8	; 232
 3f4:	93 e0       	ldi	r25, 0x03	; 3
 3f6:	9b de       	rcall	.-714    	; 0x12e <GetCurrentInMa>
 3f8:	60 e0       	ldi	r22, 0x00	; 0
 3fa:	70 e0       	ldi	r23, 0x00	; 0
 3fc:	14 df       	rcall	.-472    	; 0x226 <GetCurrentLedLevel>
 3fe:	08 2f       	mov	r16, r24
 400:	60 e0       	ldi	r22, 0x00	; 0
 402:	70 e0       	ldi	r23, 0x00	; 0
 404:	c7 01       	movw	r24, r14
 406:	66 df       	rcall	.-308    	; 0x2d4 <GetVoltageLedLevel>
 408:	18 2f       	mov	r17, r24
 40a:	be 01       	movw	r22, r28
 40c:	6f 5f       	subi	r22, 0xFF	; 255
 40e:	7f 4f       	sbci	r23, 0xFF	; 255
 410:	80 2f       	mov	r24, r16
 412:	b7 df       	rcall	.-146    	; 0x382 <ConvertLevelToBitsAndFlashCount>
 414:	be 01       	movw	r22, r28
 416:	6c 5f       	subi	r22, 0xFC	; 252
 418:	7f 4f       	sbci	r23, 0xFF	; 255
 41a:	81 2f       	mov	r24, r17
 41c:	b2 df       	rcall	.-156    	; 0x382 <ConvertLevelToBitsAndFlashCount>
 41e:	10 e0       	ldi	r17, 0x00	; 0
 420:	9a 81       	ldd	r25, Y+2	; 0x02
 422:	89 81       	ldd	r24, Y+1	; 0x01
 424:	99 23       	and	r25, r25
 426:	19 f0       	breq	.+6      	; 0x42e <__LOCK_REGION_LENGTH__+0x2e>
 428:	2b 81       	ldd	r18, Y+3	; 0x03
 42a:	12 17       	cp	r17, r18
 42c:	10 f0       	brcs	.+4      	; 0x432 <__LOCK_REGION_LENGTH__+0x32>
 42e:	90 95       	com	r25
 430:	89 23       	and	r24, r25
 432:	9d 81       	ldd	r25, Y+5	; 0x05
 434:	6c 81       	ldd	r22, Y+4	; 0x04
 436:	99 23       	and	r25, r25
 438:	19 f0       	breq	.+6      	; 0x440 <__LOCK_REGION_LENGTH__+0x40>
 43a:	2e 81       	ldd	r18, Y+6	; 0x06
 43c:	12 17       	cp	r17, r18
 43e:	10 f0       	brcs	.+4      	; 0x444 <__LOCK_REGION_LENGTH__+0x44>
 440:	90 95       	com	r25
 442:	69 23       	and	r22, r25
 444:	db de       	rcall	.-586    	; 0x1fc <UpdateLedsState>
 446:	88 ec       	ldi	r24, 0xC8	; 200
 448:	90 e0       	ldi	r25, 0x00	; 0
 44a:	fc dd       	rcall	.-1032   	; 0x44 <DelayMiliSec>
 44c:	6d 81       	ldd	r22, Y+5	; 0x05
 44e:	60 95       	com	r22
 450:	8c 81       	ldd	r24, Y+4	; 0x04
 452:	68 23       	and	r22, r24
 454:	8a 81       	ldd	r24, Y+2	; 0x02
 456:	80 95       	com	r24
 458:	99 81       	ldd	r25, Y+1	; 0x01
 45a:	89 23       	and	r24, r25
 45c:	cf de       	rcall	.-610    	; 0x1fc <UpdateLedsState>
 45e:	88 ec       	ldi	r24, 0xC8	; 200
 460:	90 e0       	ldi	r25, 0x00	; 0
 462:	f0 dd       	rcall	.-1056   	; 0x44 <DelayMiliSec>
 464:	1f 5f       	subi	r17, 0xFF	; 255
 466:	13 30       	cpi	r17, 0x03	; 3
 468:	d9 f6       	brne	.-74     	; 0x420 <__LOCK_REGION_LENGTH__+0x20>
 46a:	bf cf       	rjmp	.-130    	; 0x3ea <main+0x10>

0000046c <__mulsi3>:
 46c:	ee 27       	eor	r30, r30
 46e:	ff 27       	eor	r31, r31

00000470 <__mulsi3_helper>:
 470:	aa 27       	eor	r26, r26
 472:	bb 27       	eor	r27, r27
 474:	08 c0       	rjmp	.+16     	; 0x486 <__mulsi3_helper+0x16>
 476:	a2 0f       	add	r26, r18
 478:	b3 1f       	adc	r27, r19
 47a:	e4 1f       	adc	r30, r20
 47c:	f5 1f       	adc	r31, r21
 47e:	22 0f       	add	r18, r18
 480:	33 1f       	adc	r19, r19
 482:	44 1f       	adc	r20, r20
 484:	55 1f       	adc	r21, r21
 486:	96 95       	lsr	r25
 488:	87 95       	ror	r24
 48a:	77 95       	ror	r23
 48c:	67 95       	ror	r22
 48e:	98 f3       	brcs	.-26     	; 0x476 <__mulsi3_helper+0x6>
 490:	70 40       	sbci	r23, 0x00	; 0
 492:	a9 f7       	brne	.-22     	; 0x47e <__mulsi3_helper+0xe>
 494:	00 97       	sbiw	r24, 0x00	; 0
 496:	99 f7       	brne	.-26     	; 0x47e <__mulsi3_helper+0xe>
 498:	bd 01       	movw	r22, r26
 49a:	cf 01       	movw	r24, r30
 49c:	08 95       	ret

0000049e <__udivmodqi4>:
 49e:	99 1b       	sub	r25, r25
 4a0:	79 e0       	ldi	r23, 0x09	; 9
 4a2:	04 c0       	rjmp	.+8      	; 0x4ac <__udivmodqi4_ep>

000004a4 <__udivmodqi4_loop>:
 4a4:	99 1f       	adc	r25, r25
 4a6:	96 17       	cp	r25, r22
 4a8:	08 f0       	brcs	.+2      	; 0x4ac <__udivmodqi4_ep>
 4aa:	96 1b       	sub	r25, r22

000004ac <__udivmodqi4_ep>:
 4ac:	88 1f       	adc	r24, r24
 4ae:	7a 95       	dec	r23
 4b0:	c9 f7       	brne	.-14     	; 0x4a4 <__udivmodqi4_loop>
 4b2:	80 95       	com	r24
 4b4:	08 95       	ret

000004b6 <__divmodhi4>:
 4b6:	97 fb       	bst	r25, 7
 4b8:	07 2e       	mov	r0, r23
 4ba:	16 f4       	brtc	.+4      	; 0x4c0 <__divmodhi4+0xa>
 4bc:	00 94       	com	r0
 4be:	06 d0       	rcall	.+12     	; 0x4cc <__divmodhi4_neg1>
 4c0:	77 fd       	sbrc	r23, 7
 4c2:	08 d0       	rcall	.+16     	; 0x4d4 <__divmodhi4_neg2>
 4c4:	2d d0       	rcall	.+90     	; 0x520 <__udivmodhi4>
 4c6:	07 fc       	sbrc	r0, 7
 4c8:	05 d0       	rcall	.+10     	; 0x4d4 <__divmodhi4_neg2>
 4ca:	3e f4       	brtc	.+14     	; 0x4da <__divmodhi4_exit>

000004cc <__divmodhi4_neg1>:
 4cc:	90 95       	com	r25
 4ce:	81 95       	neg	r24
 4d0:	9f 4f       	sbci	r25, 0xFF	; 255
 4d2:	08 95       	ret

000004d4 <__divmodhi4_neg2>:
 4d4:	70 95       	com	r23
 4d6:	61 95       	neg	r22
 4d8:	7f 4f       	sbci	r23, 0xFF	; 255

000004da <__divmodhi4_exit>:
 4da:	08 95       	ret

000004dc <__udivmodsi4>:
 4dc:	a1 e2       	ldi	r26, 0x21	; 33
 4de:	1a 2e       	mov	r1, r26
 4e0:	aa 1b       	sub	r26, r26
 4e2:	bb 1b       	sub	r27, r27
 4e4:	fd 01       	movw	r30, r26
 4e6:	0d c0       	rjmp	.+26     	; 0x502 <__udivmodsi4_ep>

000004e8 <__udivmodsi4_loop>:
 4e8:	aa 1f       	adc	r26, r26
 4ea:	bb 1f       	adc	r27, r27
 4ec:	ee 1f       	adc	r30, r30
 4ee:	ff 1f       	adc	r31, r31
 4f0:	a2 17       	cp	r26, r18
 4f2:	b3 07       	cpc	r27, r19
 4f4:	e4 07       	cpc	r30, r20
 4f6:	f5 07       	cpc	r31, r21
 4f8:	20 f0       	brcs	.+8      	; 0x502 <__udivmodsi4_ep>
 4fa:	a2 1b       	sub	r26, r18
 4fc:	b3 0b       	sbc	r27, r19
 4fe:	e4 0b       	sbc	r30, r20
 500:	f5 0b       	sbc	r31, r21

00000502 <__udivmodsi4_ep>:
 502:	66 1f       	adc	r22, r22
 504:	77 1f       	adc	r23, r23
 506:	88 1f       	adc	r24, r24
 508:	99 1f       	adc	r25, r25
 50a:	1a 94       	dec	r1
 50c:	69 f7       	brne	.-38     	; 0x4e8 <__udivmodsi4_loop>
 50e:	60 95       	com	r22
 510:	70 95       	com	r23
 512:	80 95       	com	r24
 514:	90 95       	com	r25
 516:	9b 01       	movw	r18, r22
 518:	ac 01       	movw	r20, r24
 51a:	bd 01       	movw	r22, r26
 51c:	cf 01       	movw	r24, r30
 51e:	08 95       	ret

00000520 <__udivmodhi4>:
 520:	aa 1b       	sub	r26, r26
 522:	bb 1b       	sub	r27, r27
 524:	51 e1       	ldi	r21, 0x11	; 17
 526:	07 c0       	rjmp	.+14     	; 0x536 <__udivmodhi4_ep>

00000528 <__udivmodhi4_loop>:
 528:	aa 1f       	adc	r26, r26
 52a:	bb 1f       	adc	r27, r27
 52c:	a6 17       	cp	r26, r22
 52e:	b7 07       	cpc	r27, r23
 530:	10 f0       	brcs	.+4      	; 0x536 <__udivmodhi4_ep>
 532:	a6 1b       	sub	r26, r22
 534:	b7 0b       	sbc	r27, r23

00000536 <__udivmodhi4_ep>:
 536:	88 1f       	adc	r24, r24
 538:	99 1f       	adc	r25, r25
 53a:	5a 95       	dec	r21
 53c:	a9 f7       	brne	.-22     	; 0x528 <__udivmodhi4_loop>
 53e:	80 95       	com	r24
 540:	90 95       	com	r25
 542:	bc 01       	movw	r22, r24
 544:	cd 01       	movw	r24, r26
 546:	08 95       	ret

00000548 <_exit>:
 548:	f8 94       	cli

0000054a <__stop_program>:
 54a:	ff cf       	rjmp	.-2      	; 0x54a <__stop_program>
