
HumidityMetter.elf:     file format elf32-littlearm

Sections:
Idx Name          Size      VMA       LMA       File off  Algn
  0 .isr_vector   00000130  08000000  08000000  00001000  2**0
                  CONTENTS, ALLOC, LOAD, READONLY, DATA
  1 .text         000006dc  08000130  08000130  00001130  2**2
                  CONTENTS, ALLOC, LOAD, READONLY, CODE
  2 .rodata       00000010  0800080c  0800080c  0000180c  2**0
                  CONTENTS, ALLOC, LOAD, READONLY, DATA
  3 .ARM.extab    00000000  0800081c  0800081c  00001824  2**0
                  CONTENTS
  4 .ARM          00000000  0800081c  0800081c  00001824  2**0
                  CONTENTS
  5 .preinit_array 00000000  0800081c  08000824  00001824  2**0
                  CONTENTS, ALLOC, LOAD, DATA
  6 .init_array   00000004  0800081c  0800081c  0000181c  2**2
                  CONTENTS, ALLOC, LOAD, READONLY, DATA
  7 .fini_array   00000004  08000820  08000820  00001820  2**2
                  CONTENTS, ALLOC, LOAD, READONLY, DATA
  8 .data         00000000  20000000  20000000  00001824  2**0
                  CONTENTS, ALLOC, LOAD, DATA
  9 .bss          0000001c  20000000  08000824  00002000  2**2
                  ALLOC
 10 ._user_heap_stack 00000604  2000001c  08000824  0000201c  2**0
                  ALLOC
 11 .ARM.attributes 00000029  00000000  00000000  00001824  2**0
                  CONTENTS, READONLY
 12 .comment      00000043  00000000  00000000  0000184d  2**0
                  CONTENTS, READONLY
 13 .debug_frame  0000002c  00000000  00000000  00001890  2**2
                  CONTENTS, READONLY, DEBUGGING, OCTETS

Disassembly of section .text:

08000130 <__do_global_dtors_aux>:
 8000130:	b510      	push	{r4, lr}
 8000132:	4c05      	ldr	r4, [pc, #20]	@ (8000148 <__do_global_dtors_aux+0x18>)
 8000134:	7823      	ldrb	r3, [r4, #0]
 8000136:	b933      	cbnz	r3, 8000146 <__do_global_dtors_aux+0x16>
 8000138:	4b04      	ldr	r3, [pc, #16]	@ (800014c <__do_global_dtors_aux+0x1c>)
 800013a:	b113      	cbz	r3, 8000142 <__do_global_dtors_aux+0x12>
 800013c:	4804      	ldr	r0, [pc, #16]	@ (8000150 <__do_global_dtors_aux+0x20>)
 800013e:	f3af 8000 	nop.w
 8000142:	2301      	movs	r3, #1
 8000144:	7023      	strb	r3, [r4, #0]
 8000146:	bd10      	pop	{r4, pc}
 8000148:	20000000 	.word	0x20000000
 800014c:	00000000 	.word	0x00000000
 8000150:	080007f4 	.word	0x080007f4

08000154 <frame_dummy>:
 8000154:	b508      	push	{r3, lr}
 8000156:	4b03      	ldr	r3, [pc, #12]	@ (8000164 <frame_dummy+0x10>)
 8000158:	b11b      	cbz	r3, 8000162 <frame_dummy+0xe>
 800015a:	4903      	ldr	r1, [pc, #12]	@ (8000168 <frame_dummy+0x14>)
 800015c:	4803      	ldr	r0, [pc, #12]	@ (800016c <frame_dummy+0x18>)
 800015e:	f3af 8000 	nop.w
 8000162:	bd08      	pop	{r3, pc}
 8000164:	00000000 	.word	0x00000000
 8000168:	20000004 	.word	0x20000004
 800016c:	080007f4 	.word	0x080007f4

08000170 <NMI_Handler>:
 8000170:	e7fe      	b.n	8000170 <NMI_Handler>

08000172 <HardFault_Handler>:
 8000172:	e7fe      	b.n	8000172 <HardFault_Handler>

08000174 <MemManage_Handler>:
 8000174:	e7fe      	b.n	8000174 <MemManage_Handler>

08000176 <BusFault_Handler>:
 8000176:	e7fe      	b.n	8000176 <BusFault_Handler>

08000178 <UsageFault_Handler>:
 8000178:	e7fe      	b.n	8000178 <UsageFault_Handler>

0800017a <SVC_Handler>:
 800017a:	4770      	bx	lr

0800017c <DebugMon_Handler>:
 800017c:	4770      	bx	lr

0800017e <PendSV_Handler>:
 800017e:	4770      	bx	lr

08000180 <SysTick_Handler>:
 8000180:	4770      	bx	lr

08000182 <SystemInit>:
 8000182:	4770      	bx	lr

08000184 <_ZN10DelayTimer4InitEtt>:
 8000184:	4a0e      	ldr	r2, [pc, #56]	@ (80001c0 <_ZN10DelayTimer4InitEtt+0x3c>)
 8000186:	6993      	ldr	r3, [r2, #24]
 8000188:	f443 6300 	orr.w	r3, r3, #2048	@ 0x800
 800018c:	6193      	str	r3, [r2, #24]
 800018e:	4b0d      	ldr	r3, [pc, #52]	@ (80001c4 <_ZN10DelayTimer4InitEtt+0x40>)
 8000190:	689a      	ldr	r2, [r3, #8]
 8000192:	f022 0207 	bic.w	r2, r2, #7
 8000196:	609a      	str	r2, [r3, #8]
 8000198:	2201      	movs	r2, #1
 800019a:	601a      	str	r2, [r3, #0]
 800019c:	681a      	ldr	r2, [r3, #0]
 800019e:	f022 0280 	bic.w	r2, r2, #128	@ 0x80
 80001a2:	601a      	str	r2, [r3, #0]
 80001a4:	2200      	movs	r2, #0
 80001a6:	60da      	str	r2, [r3, #12]
 80001a8:	6299      	str	r1, [r3, #40]	@ 0x28
 80001aa:	62d8      	str	r0, [r3, #44]	@ 0x2c
 80001ac:	625a      	str	r2, [r3, #36]	@ 0x24
 80001ae:	695a      	ldr	r2, [r3, #20]
 80001b0:	f042 0201 	orr.w	r2, r2, #1
 80001b4:	615a      	str	r2, [r3, #20]
 80001b6:	691a      	ldr	r2, [r3, #16]
 80001b8:	f022 0201 	bic.w	r2, r2, #1
 80001bc:	611a      	str	r2, [r3, #16]
 80001be:	4770      	bx	lr
 80001c0:	40021000 	.word	0x40021000
 80001c4:	40012c00 	.word	0x40012c00

080001c8 <_ZN10DelayTimer13DelayMicroSecEt>:
 80001c8:	2100      	movs	r1, #0
 80001ca:	b508      	push	{r3, lr}
 80001cc:	f7ff ffda 	bl	8000184 <_ZN10DelayTimer4InitEtt>
 80001d0:	4a02      	ldr	r2, [pc, #8]	@ (80001dc <_ZN10DelayTimer13DelayMicroSecEt+0x14>)
 80001d2:	6913      	ldr	r3, [r2, #16]
 80001d4:	07db      	lsls	r3, r3, #31
 80001d6:	d5fc      	bpl.n	80001d2 <_ZN10DelayTimer13DelayMicroSecEt+0xa>
 80001d8:	bd08      	pop	{r3, pc}
 80001da:	bf00      	nop
 80001dc:	40012c00 	.word	0x40012c00

080001e0 <_ZN10DelayTimer13DelayMilliSecEt>:
 80001e0:	f240 31e7 	movw	r1, #999	@ 0x3e7
 80001e4:	b508      	push	{r3, lr}
 80001e6:	f7ff ffcd 	bl	8000184 <_ZN10DelayTimer4InitEtt>
 80001ea:	4a02      	ldr	r2, [pc, #8]	@ (80001f4 <_ZN10DelayTimer13DelayMilliSecEt+0x14>)
 80001ec:	6913      	ldr	r3, [r2, #16]
 80001ee:	07db      	lsls	r3, r3, #31
 80001f0:	d5fc      	bpl.n	80001ec <_ZN10DelayTimer13DelayMilliSecEt+0xc>
 80001f2:	bd08      	pop	{r3, pc}
 80001f4:	40012c00 	.word	0x40012c00

080001f8 <_ZN16GpioConfigurator15GpioClockEnableEP12GPIO_TypeDef>:
 80001f8:	4b10      	ldr	r3, [pc, #64]	@ (800023c <_ZN16GpioConfigurator15GpioClockEnableEP12GPIO_TypeDef+0x44>)
 80001fa:	4298      	cmp	r0, r3
 80001fc:	d105      	bne.n	800020a <_ZN16GpioConfigurator15GpioClockEnableEP12GPIO_TypeDef+0x12>
 80001fe:	4a10      	ldr	r2, [pc, #64]	@ (8000240 <_ZN16GpioConfigurator15GpioClockEnableEP12GPIO_TypeDef+0x48>)
 8000200:	6993      	ldr	r3, [r2, #24]
 8000202:	f043 0304 	orr.w	r3, r3, #4
 8000206:	6193      	str	r3, [r2, #24]
 8000208:	4770      	bx	lr
 800020a:	4b0e      	ldr	r3, [pc, #56]	@ (8000244 <_ZN16GpioConfigurator15GpioClockEnableEP12GPIO_TypeDef+0x4c>)
 800020c:	4298      	cmp	r0, r3
 800020e:	d104      	bne.n	800021a <_ZN16GpioConfigurator15GpioClockEnableEP12GPIO_TypeDef+0x22>
 8000210:	4a0b      	ldr	r2, [pc, #44]	@ (8000240 <_ZN16GpioConfigurator15GpioClockEnableEP12GPIO_TypeDef+0x48>)
 8000212:	6993      	ldr	r3, [r2, #24]
 8000214:	f043 0308 	orr.w	r3, r3, #8
 8000218:	e7f5      	b.n	8000206 <_ZN16GpioConfigurator15GpioClockEnableEP12GPIO_TypeDef+0xe>
 800021a:	4b0b      	ldr	r3, [pc, #44]	@ (8000248 <_ZN16GpioConfigurator15GpioClockEnableEP12GPIO_TypeDef+0x50>)
 800021c:	4298      	cmp	r0, r3
 800021e:	d104      	bne.n	800022a <_ZN16GpioConfigurator15GpioClockEnableEP12GPIO_TypeDef+0x32>
 8000220:	4a07      	ldr	r2, [pc, #28]	@ (8000240 <_ZN16GpioConfigurator15GpioClockEnableEP12GPIO_TypeDef+0x48>)
 8000222:	6993      	ldr	r3, [r2, #24]
 8000224:	f043 0310 	orr.w	r3, r3, #16
 8000228:	e7ed      	b.n	8000206 <_ZN16GpioConfigurator15GpioClockEnableEP12GPIO_TypeDef+0xe>
 800022a:	4b08      	ldr	r3, [pc, #32]	@ (800024c <_ZN16GpioConfigurator15GpioClockEnableEP12GPIO_TypeDef+0x54>)
 800022c:	4298      	cmp	r0, r3
 800022e:	d1eb      	bne.n	8000208 <_ZN16GpioConfigurator15GpioClockEnableEP12GPIO_TypeDef+0x10>
 8000230:	4a03      	ldr	r2, [pc, #12]	@ (8000240 <_ZN16GpioConfigurator15GpioClockEnableEP12GPIO_TypeDef+0x48>)
 8000232:	6993      	ldr	r3, [r2, #24]
 8000234:	f043 0320 	orr.w	r3, r3, #32
 8000238:	e7e5      	b.n	8000206 <_ZN16GpioConfigurator15GpioClockEnableEP12GPIO_TypeDef+0xe>
 800023a:	bf00      	nop
 800023c:	40010800 	.word	0x40010800
 8000240:	40021000 	.word	0x40021000
 8000244:	40010c00 	.word	0x40010c00
 8000248:	40011000 	.word	0x40011000
 800024c:	40011400 	.word	0x40011400

08000250 <_ZN16GpioConfigurator18SetGpioOutPushPullEP12GPIO_TypeDefh>:
 8000250:	220f      	movs	r2, #15
 8000252:	b510      	push	{r4, lr}
 8000254:	2401      	movs	r4, #1
 8000256:	2907      	cmp	r1, #7
 8000258:	bf86      	itte	hi
 800025a:	f1a1 0308 	subhi.w	r3, r1, #8
 800025e:	009b      	lslhi	r3, r3, #2
 8000260:	008b      	lslls	r3, r1, #2
 8000262:	b2db      	uxtb	r3, r3
 8000264:	409c      	lsls	r4, r3
 8000266:	2907      	cmp	r1, #7
 8000268:	fa02 f303 	lsl.w	r3, r2, r3
 800026c:	ea6f 0303 	mvn.w	r3, r3
 8000270:	d906      	bls.n	8000280 <_ZN16GpioConfigurator18SetGpioOutPushPullEP12GPIO_TypeDefh+0x30>
 8000272:	6842      	ldr	r2, [r0, #4]
 8000274:	4013      	ands	r3, r2
 8000276:	6043      	str	r3, [r0, #4]
 8000278:	6843      	ldr	r3, [r0, #4]
 800027a:	4323      	orrs	r3, r4
 800027c:	6043      	str	r3, [r0, #4]
 800027e:	bd10      	pop	{r4, pc}
 8000280:	6802      	ldr	r2, [r0, #0]
 8000282:	4013      	ands	r3, r2
 8000284:	6003      	str	r3, [r0, #0]
 8000286:	6803      	ldr	r3, [r0, #0]
 8000288:	4323      	orrs	r3, r4
 800028a:	6003      	str	r3, [r0, #0]
 800028c:	e7f7      	b.n	800027e <_ZN16GpioConfigurator18SetGpioOutPushPullEP12GPIO_TypeDefh+0x2e>

0800028e <_ZN16GpioConfigurator17SetGpioInFloatingEP12GPIO_TypeDefh>:
 800028e:	220f      	movs	r2, #15
 8000290:	b510      	push	{r4, lr}
 8000292:	2404      	movs	r4, #4
 8000294:	2907      	cmp	r1, #7
 8000296:	bf86      	itte	hi
 8000298:	f1a1 0308 	subhi.w	r3, r1, #8
 800029c:	009b      	lslhi	r3, r3, #2
 800029e:	008b      	lslls	r3, r1, #2
 80002a0:	b2db      	uxtb	r3, r3
 80002a2:	409c      	lsls	r4, r3
 80002a4:	2907      	cmp	r1, #7
 80002a6:	fa02 f303 	lsl.w	r3, r2, r3
 80002aa:	ea6f 0303 	mvn.w	r3, r3
 80002ae:	d906      	bls.n	80002be <_ZN16GpioConfigurator17SetGpioInFloatingEP12GPIO_TypeDefh+0x30>
 80002b0:	6842      	ldr	r2, [r0, #4]
 80002b2:	4013      	ands	r3, r2
 80002b4:	6043      	str	r3, [r0, #4]
 80002b6:	6843      	ldr	r3, [r0, #4]
 80002b8:	4323      	orrs	r3, r4
 80002ba:	6043      	str	r3, [r0, #4]
 80002bc:	bd10      	pop	{r4, pc}
 80002be:	6802      	ldr	r2, [r0, #0]
 80002c0:	4013      	ands	r3, r2
 80002c2:	6003      	str	r3, [r0, #0]
 80002c4:	6803      	ldr	r3, [r0, #0]
 80002c6:	4323      	orrs	r3, r4
 80002c8:	6003      	str	r3, [r0, #0]
 80002ca:	e7f7      	b.n	80002bc <_ZN16GpioConfigurator17SetGpioInFloatingEP12GPIO_TypeDefh+0x2e>

080002cc <_ZN9LcdScreen5LcdRSEh>:
 80002cc:	4a04      	ldr	r2, [pc, #16]	@ (80002e0 <_ZN9LcdScreen5LcdRSEh+0x14>)
 80002ce:	68d3      	ldr	r3, [r2, #12]
 80002d0:	b118      	cbz	r0, 80002da <_ZN9LcdScreen5LcdRSEh+0xe>
 80002d2:	f443 7300 	orr.w	r3, r3, #512	@ 0x200
 80002d6:	60d3      	str	r3, [r2, #12]
 80002d8:	4770      	bx	lr
 80002da:	f423 7300 	bic.w	r3, r3, #512	@ 0x200
 80002de:	e7fa      	b.n	80002d6 <_ZN9LcdScreen5LcdRSEh+0xa>
 80002e0:	40010c00 	.word	0x40010c00

080002e4 <_ZN9LcdScreen5LcdRWEh>:
 80002e4:	4a04      	ldr	r2, [pc, #16]	@ (80002f8 <_ZN9LcdScreen5LcdRWEh+0x14>)
 80002e6:	68d3      	ldr	r3, [r2, #12]
 80002e8:	b118      	cbz	r0, 80002f2 <_ZN9LcdScreen5LcdRWEh+0xe>
 80002ea:	f443 7380 	orr.w	r3, r3, #256	@ 0x100
 80002ee:	60d3      	str	r3, [r2, #12]
 80002f0:	4770      	bx	lr
 80002f2:	f423 7380 	bic.w	r3, r3, #256	@ 0x100
 80002f6:	e7fa      	b.n	80002ee <_ZN9LcdScreen5LcdRWEh+0xa>
 80002f8:	40010c00 	.word	0x40010c00

080002fc <_ZN9LcdScreen4LcdEEh>:
 80002fc:	4a04      	ldr	r2, [pc, #16]	@ (8000310 <_ZN9LcdScreen4LcdEEh+0x14>)
 80002fe:	68d3      	ldr	r3, [r2, #12]
 8000300:	b118      	cbz	r0, 800030a <_ZN9LcdScreen4LcdEEh+0xe>
 8000302:	f043 0380 	orr.w	r3, r3, #128	@ 0x80
 8000306:	60d3      	str	r3, [r2, #12]
 8000308:	4770      	bx	lr
 800030a:	f023 0380 	bic.w	r3, r3, #128	@ 0x80
 800030e:	e7fa      	b.n	8000306 <_ZN9LcdScreen4LcdEEh+0xa>
 8000310:	40010c00 	.word	0x40010c00

08000314 <_ZN9LcdScreen11LcdOut4bitsEh>:
 8000314:	490a      	ldr	r1, [pc, #40]	@ (8000340 <_ZN9LcdScreen11LcdOut4bitsEh+0x2c>)
 8000316:	b510      	push	{r4, lr}
 8000318:	68ca      	ldr	r2, [r1, #12]
 800031a:	03c3      	lsls	r3, r0, #15
 800031c:	0344      	lsls	r4, r0, #13
 800031e:	b29b      	uxth	r3, r3
 8000320:	f404 4480 	and.w	r4, r4, #16384	@ 0x4000
 8000324:	f422 4270 	bic.w	r2, r2, #61440	@ 0xf000
 8000328:	4323      	orrs	r3, r4
 800032a:	4313      	orrs	r3, r2
 800032c:	02c2      	lsls	r2, r0, #11
 800032e:	f402 5200 	and.w	r2, r2, #8192	@ 0x2000
 8000332:	0240      	lsls	r0, r0, #9
 8000334:	4313      	orrs	r3, r2
 8000336:	f400 5080 	and.w	r0, r0, #4096	@ 0x1000
 800033a:	4318      	orrs	r0, r3
 800033c:	60c8      	str	r0, [r1, #12]
 800033e:	bd10      	pop	{r4, pc}
 8000340:	40010c00 	.word	0x40010c00

08000344 <_ZN9LcdScreen10LcdIn4bitsEv>:
 8000344:	4b08      	ldr	r3, [pc, #32]	@ (8000368 <_ZN9LcdScreen10LcdIn4bitsEv+0x24>)
 8000346:	689b      	ldr	r3, [r3, #8]
 8000348:	0b5a      	lsrs	r2, r3, #13
 800034a:	f3c3 30c0 	ubfx	r0, r3, #15, #1
 800034e:	f002 0202 	and.w	r2, r2, #2
 8000352:	4310      	orrs	r0, r2
 8000354:	0ada      	lsrs	r2, r3, #11
 8000356:	f002 0204 	and.w	r2, r2, #4
 800035a:	0a5b      	lsrs	r3, r3, #9
 800035c:	4310      	orrs	r0, r2
 800035e:	f003 0308 	and.w	r3, r3, #8
 8000362:	4318      	orrs	r0, r3
 8000364:	4770      	bx	lr
 8000366:	bf00      	nop
 8000368:	40010c00 	.word	0x40010c00

0800036c <_ZN9LcdScreen13LcdSetDataOutEv>:
 800036c:	b510      	push	{r4, lr}
 800036e:	4c09      	ldr	r4, [pc, #36]	@ (8000394 <_ZN9LcdScreen13LcdSetDataOutEv+0x28>)
 8000370:	210f      	movs	r1, #15
 8000372:	4620      	mov	r0, r4
 8000374:	f7ff ff6c 	bl	8000250 <_ZN16GpioConfigurator18SetGpioOutPushPullEP12GPIO_TypeDefh>
 8000378:	4620      	mov	r0, r4
 800037a:	210e      	movs	r1, #14
 800037c:	f7ff ff68 	bl	8000250 <_ZN16GpioConfigurator18SetGpioOutPushPullEP12GPIO_TypeDefh>
 8000380:	4620      	mov	r0, r4
 8000382:	210d      	movs	r1, #13
 8000384:	f7ff ff64 	bl	8000250 <_ZN16GpioConfigurator18SetGpioOutPushPullEP12GPIO_TypeDefh>
 8000388:	4620      	mov	r0, r4
 800038a:	e8bd 4010 	ldmia.w	sp!, {r4, lr}
 800038e:	210c      	movs	r1, #12
 8000390:	f7ff bf5e 	b.w	8000250 <_ZN16GpioConfigurator18SetGpioOutPushPullEP12GPIO_TypeDefh>
 8000394:	40010c00 	.word	0x40010c00

08000398 <_ZN9LcdScreen12LcdSetDataInEv>:
 8000398:	b510      	push	{r4, lr}
 800039a:	4c09      	ldr	r4, [pc, #36]	@ (80003c0 <_ZN9LcdScreen12LcdSetDataInEv+0x28>)
 800039c:	210f      	movs	r1, #15
 800039e:	4620      	mov	r0, r4
 80003a0:	f7ff ff75 	bl	800028e <_ZN16GpioConfigurator17SetGpioInFloatingEP12GPIO_TypeDefh>
 80003a4:	4620      	mov	r0, r4
 80003a6:	210e      	movs	r1, #14
 80003a8:	f7ff ff71 	bl	800028e <_ZN16GpioConfigurator17SetGpioInFloatingEP12GPIO_TypeDefh>
 80003ac:	4620      	mov	r0, r4
 80003ae:	210d      	movs	r1, #13
 80003b0:	f7ff ff6d 	bl	800028e <_ZN16GpioConfigurator17SetGpioInFloatingEP12GPIO_TypeDefh>
 80003b4:	4620      	mov	r0, r4
 80003b6:	e8bd 4010 	ldmia.w	sp!, {r4, lr}
 80003ba:	210c      	movs	r1, #12
 80003bc:	f7ff bf67 	b.w	800028e <_ZN16GpioConfigurator17SetGpioInFloatingEP12GPIO_TypeDefh>
 80003c0:	40010c00 	.word	0x40010c00

080003c4 <_ZN9LcdScreen15Lcd4BitWideReadEhh>:
 80003c4:	b538      	push	{r3, r4, r5, lr}
 80003c6:	4605      	mov	r5, r0
 80003c8:	460c      	mov	r4, r1
 80003ca:	f7ff ffe5 	bl	8000398 <_ZN9LcdScreen12LcdSetDataInEv>
 80003ce:	4628      	mov	r0, r5
 80003d0:	f7ff ff7c 	bl	80002cc <_ZN9LcdScreen5LcdRSEh>
 80003d4:	4620      	mov	r0, r4
 80003d6:	f7ff ff85 	bl	80002e4 <_ZN9LcdScreen5LcdRWEh>
 80003da:	2001      	movs	r0, #1
 80003dc:	f7ff ff8e 	bl	80002fc <_ZN9LcdScreen4LcdEEh>
 80003e0:	f7ff fef2 	bl	80001c8 <_ZN10DelayTimer13DelayMicroSecEt>
 80003e4:	f7ff ffae 	bl	8000344 <_ZN9LcdScreen10LcdIn4bitsEv>
 80003e8:	0104      	lsls	r4, r0, #4
 80003ea:	2000      	movs	r0, #0
 80003ec:	f7ff ff86 	bl	80002fc <_ZN9LcdScreen4LcdEEh>
 80003f0:	2001      	movs	r0, #1
 80003f2:	f7ff fee9 	bl	80001c8 <_ZN10DelayTimer13DelayMicroSecEt>
 80003f6:	2001      	movs	r0, #1
 80003f8:	f7ff ff80 	bl	80002fc <_ZN9LcdScreen4LcdEEh>
 80003fc:	f7ff fee4 	bl	80001c8 <_ZN10DelayTimer13DelayMicroSecEt>
 8000400:	f7ff ffa0 	bl	8000344 <_ZN9LcdScreen10LcdIn4bitsEv>
 8000404:	b2e4      	uxtb	r4, r4
 8000406:	4404      	add	r4, r0
 8000408:	2000      	movs	r0, #0
 800040a:	f7ff ff77 	bl	80002fc <_ZN9LcdScreen4LcdEEh>
 800040e:	b2e4      	uxtb	r4, r4
 8000410:	2001      	movs	r0, #1
 8000412:	f7ff fed9 	bl	80001c8 <_ZN10DelayTimer13DelayMicroSecEt>
 8000416:	4620      	mov	r0, r4
 8000418:	bd38      	pop	{r3, r4, r5, pc}

0800041a <_ZN9LcdScreen6IsBusyEv>:
 800041a:	2101      	movs	r1, #1
 800041c:	b508      	push	{r3, lr}
 800041e:	2000      	movs	r0, #0
 8000420:	f7ff ffd0 	bl	80003c4 <_ZN9LcdScreen15Lcd4BitWideReadEhh>
 8000424:	f3c0 10c0 	ubfx	r0, r0, #7, #1
 8000428:	bd08      	pop	{r3, pc}

0800042a <_ZN9LcdScreen16Lcd4BitWideWriteEhhh>:
 800042a:	b510      	push	{r4, lr}
 800042c:	4614      	mov	r4, r2
 800042e:	f7ff ff4d 	bl	80002cc <_ZN9LcdScreen5LcdRSEh>
 8000432:	4608      	mov	r0, r1
 8000434:	f7ff ff56 	bl	80002e4 <_ZN9LcdScreen5LcdRWEh>
 8000438:	2001      	movs	r0, #1
 800043a:	f7ff ff5f 	bl	80002fc <_ZN9LcdScreen4LcdEEh>
 800043e:	f7ff ff95 	bl	800036c <_ZN9LcdScreen13LcdSetDataOutEv>
 8000442:	0920      	lsrs	r0, r4, #4
 8000444:	f7ff ff66 	bl	8000314 <_ZN9LcdScreen11LcdOut4bitsEh>
 8000448:	2001      	movs	r0, #1
 800044a:	f7ff febd 	bl	80001c8 <_ZN10DelayTimer13DelayMicroSecEt>
 800044e:	2000      	movs	r0, #0
 8000450:	f7ff ff54 	bl	80002fc <_ZN9LcdScreen4LcdEEh>
 8000454:	2001      	movs	r0, #1
 8000456:	f7ff feb7 	bl	80001c8 <_ZN10DelayTimer13DelayMicroSecEt>
 800045a:	2001      	movs	r0, #1
 800045c:	f7ff ff4e 	bl	80002fc <_ZN9LcdScreen4LcdEEh>
 8000460:	f004 000f 	and.w	r0, r4, #15
 8000464:	f7ff ff56 	bl	8000314 <_ZN9LcdScreen11LcdOut4bitsEh>
 8000468:	2001      	movs	r0, #1
 800046a:	f7ff fead 	bl	80001c8 <_ZN10DelayTimer13DelayMicroSecEt>
 800046e:	2000      	movs	r0, #0
 8000470:	f7ff ff44 	bl	80002fc <_ZN9LcdScreen4LcdEEh>
 8000474:	2001      	movs	r0, #1
 8000476:	f7ff fea7 	bl	80001c8 <_ZN10DelayTimer13DelayMicroSecEt>
 800047a:	e8bd 4010 	ldmia.w	sp!, {r4, lr}
 800047e:	f7ff bf8b 	b.w	8000398 <_ZN9LcdScreen12LcdSetDataInEv>

08000482 <_ZN9LcdScreen20Lcd8BitWideFakeWriteEhhh>:
 8000482:	b510      	push	{r4, lr}
 8000484:	4614      	mov	r4, r2
 8000486:	f7ff ff21 	bl	80002cc <_ZN9LcdScreen5LcdRSEh>
 800048a:	4608      	mov	r0, r1
 800048c:	f7ff ff2a 	bl	80002e4 <_ZN9LcdScreen5LcdRWEh>
 8000490:	2001      	movs	r0, #1
 8000492:	f7ff ff33 	bl	80002fc <_ZN9LcdScreen4LcdEEh>
 8000496:	f7ff ff69 	bl	800036c <_ZN9LcdScreen13LcdSetDataOutEv>
 800049a:	0920      	lsrs	r0, r4, #4
 800049c:	f7ff ff3a 	bl	8000314 <_ZN9LcdScreen11LcdOut4bitsEh>
 80004a0:	2001      	movs	r0, #1
 80004a2:	f7ff fe91 	bl	80001c8 <_ZN10DelayTimer13DelayMicroSecEt>
 80004a6:	2000      	movs	r0, #0
 80004a8:	f7ff ff28 	bl	80002fc <_ZN9LcdScreen4LcdEEh>
 80004ac:	2001      	movs	r0, #1
 80004ae:	f7ff fe8b 	bl	80001c8 <_ZN10DelayTimer13DelayMicroSecEt>
 80004b2:	e8bd 4010 	ldmia.w	sp!, {r4, lr}
 80004b6:	f7ff bf6f 	b.w	8000398 <_ZN9LcdScreen12LcdSetDataInEv>

080004ba <_ZN9LcdScreen11WaitForBusyEv>:
 80004ba:	b508      	push	{r3, lr}
 80004bc:	f7ff ffad 	bl	800041a <_ZN9LcdScreen6IsBusyEv>
 80004c0:	2800      	cmp	r0, #0
 80004c2:	d1fb      	bne.n	80004bc <_ZN9LcdScreen11WaitForBusyEv+0x2>
 80004c4:	bd08      	pop	{r3, pc}
	...

080004c8 <_ZN9LcdScreen7LcdInitEv>:
 80004c8:	b510      	push	{r4, lr}
 80004ca:	4c39      	ldr	r4, [pc, #228]	@ (80005b0 <_ZN9LcdScreen7LcdInitEv+0xe8>)
 80004cc:	4620      	mov	r0, r4
 80004ce:	f7ff fe93 	bl	80001f8 <_ZN16GpioConfigurator15GpioClockEnableEP12GPIO_TypeDef>
 80004d2:	2000      	movs	r0, #0
 80004d4:	f7ff fefa 	bl	80002cc <_ZN9LcdScreen5LcdRSEh>
 80004d8:	f7ff ff04 	bl	80002e4 <_ZN9LcdScreen5LcdRWEh>
 80004dc:	f7ff ff0e 	bl	80002fc <_ZN9LcdScreen4LcdEEh>
 80004e0:	f7ff ff18 	bl	8000314 <_ZN9LcdScreen11LcdOut4bitsEh>
 80004e4:	4620      	mov	r0, r4
 80004e6:	2109      	movs	r1, #9
 80004e8:	f7ff feb2 	bl	8000250 <_ZN16GpioConfigurator18SetGpioOutPushPullEP12GPIO_TypeDefh>
 80004ec:	4620      	mov	r0, r4
 80004ee:	2108      	movs	r1, #8
 80004f0:	f7ff feae 	bl	8000250 <_ZN16GpioConfigurator18SetGpioOutPushPullEP12GPIO_TypeDefh>
 80004f4:	2107      	movs	r1, #7
 80004f6:	4620      	mov	r0, r4
 80004f8:	f7ff feaa 	bl	8000250 <_ZN16GpioConfigurator18SetGpioOutPushPullEP12GPIO_TypeDefh>
 80004fc:	f7ff ff36 	bl	800036c <_ZN9LcdScreen13LcdSetDataOutEv>
 8000500:	f649 4040 	movw	r0, #40000	@ 0x9c40
 8000504:	f7ff fe60 	bl	80001c8 <_ZN10DelayTimer13DelayMicroSecEt>
 8000508:	2100      	movs	r1, #0
 800050a:	2230      	movs	r2, #48	@ 0x30
 800050c:	4608      	mov	r0, r1
 800050e:	f7ff ffb8 	bl	8000482 <_ZN9LcdScreen20Lcd8BitWideFakeWriteEhhh>
 8000512:	f241 0004 	movw	r0, #4100	@ 0x1004
 8000516:	f7ff fe57 	bl	80001c8 <_ZN10DelayTimer13DelayMicroSecEt>
 800051a:	2100      	movs	r1, #0
 800051c:	2230      	movs	r2, #48	@ 0x30
 800051e:	4608      	mov	r0, r1
 8000520:	f7ff ffaf 	bl	8000482 <_ZN9LcdScreen20Lcd8BitWideFakeWriteEhhh>
 8000524:	2064      	movs	r0, #100	@ 0x64
 8000526:	f7ff fe4f 	bl	80001c8 <_ZN10DelayTimer13DelayMicroSecEt>
 800052a:	2100      	movs	r1, #0
 800052c:	2230      	movs	r2, #48	@ 0x30
 800052e:	4608      	mov	r0, r1
 8000530:	f7ff ffa7 	bl	8000482 <_ZN9LcdScreen20Lcd8BitWideFakeWriteEhhh>
 8000534:	2064      	movs	r0, #100	@ 0x64
 8000536:	f7ff fe47 	bl	80001c8 <_ZN10DelayTimer13DelayMicroSecEt>
 800053a:	2100      	movs	r1, #0
 800053c:	2220      	movs	r2, #32
 800053e:	4608      	mov	r0, r1
 8000540:	f7ff ff9f 	bl	8000482 <_ZN9LcdScreen20Lcd8BitWideFakeWriteEhhh>
 8000544:	2064      	movs	r0, #100	@ 0x64
 8000546:	f7ff fe3f 	bl	80001c8 <_ZN10DelayTimer13DelayMicroSecEt>
 800054a:	2100      	movs	r1, #0
 800054c:	2228      	movs	r2, #40	@ 0x28
 800054e:	4608      	mov	r0, r1
 8000550:	f7ff ff6b 	bl	800042a <_ZN9LcdScreen16Lcd4BitWideWriteEhhh>
 8000554:	2027      	movs	r0, #39	@ 0x27
 8000556:	f7ff fe37 	bl	80001c8 <_ZN10DelayTimer13DelayMicroSecEt>
 800055a:	2100      	movs	r1, #0
 800055c:	2228      	movs	r2, #40	@ 0x28
 800055e:	4608      	mov	r0, r1
 8000560:	f7ff ff63 	bl	800042a <_ZN9LcdScreen16Lcd4BitWideWriteEhhh>
 8000564:	f7ff ffa9 	bl	80004ba <_ZN9LcdScreen11WaitForBusyEv>
 8000568:	2027      	movs	r0, #39	@ 0x27
 800056a:	f7ff fe2d 	bl	80001c8 <_ZN10DelayTimer13DelayMicroSecEt>
 800056e:	2100      	movs	r1, #0
 8000570:	220c      	movs	r2, #12
 8000572:	4608      	mov	r0, r1
 8000574:	f7ff ff59 	bl	800042a <_ZN9LcdScreen16Lcd4BitWideWriteEhhh>
 8000578:	f7ff ff9f 	bl	80004ba <_ZN9LcdScreen11WaitForBusyEv>
 800057c:	2027      	movs	r0, #39	@ 0x27
 800057e:	f7ff fe23 	bl	80001c8 <_ZN10DelayTimer13DelayMicroSecEt>
 8000582:	2100      	movs	r1, #0
 8000584:	2201      	movs	r2, #1
 8000586:	4608      	mov	r0, r1
 8000588:	f7ff ff4f 	bl	800042a <_ZN9LcdScreen16Lcd4BitWideWriteEhhh>
 800058c:	f7ff ff95 	bl	80004ba <_ZN9LcdScreen11WaitForBusyEv>
 8000590:	f240 50fa 	movw	r0, #1530	@ 0x5fa
 8000594:	f7ff fe18 	bl	80001c8 <_ZN10DelayTimer13DelayMicroSecEt>
 8000598:	2100      	movs	r1, #0
 800059a:	2206      	movs	r2, #6
 800059c:	4608      	mov	r0, r1
 800059e:	f7ff ff44 	bl	800042a <_ZN9LcdScreen16Lcd4BitWideWriteEhhh>
 80005a2:	2027      	movs	r0, #39	@ 0x27
 80005a4:	f7ff fe10 	bl	80001c8 <_ZN10DelayTimer13DelayMicroSecEt>
 80005a8:	e8bd 4010 	ldmia.w	sp!, {r4, lr}
 80005ac:	f7ff bf85 	b.w	80004ba <_ZN9LcdScreen11WaitForBusyEv>
 80005b0:	40010c00 	.word	0x40010c00

080005b4 <_ZN9LcdScreen8LcdToPosEhh>:
 80005b4:	b538      	push	{r3, r4, r5, lr}
 80005b6:	460d      	mov	r5, r1
 80005b8:	4604      	mov	r4, r0
 80005ba:	f7ff ff7e 	bl	80004ba <_ZN9LcdScreen11WaitForBusyEv>
 80005be:	2100      	movs	r1, #0
 80005c0:	eb05 0585 	add.w	r5, r5, r5, lsl #2
 80005c4:	eb04 02c5 	add.w	r2, r4, r5, lsl #3
 80005c8:	f062 027f 	orn	r2, r2, #127	@ 0x7f
 80005cc:	4608      	mov	r0, r1
 80005ce:	b2d2      	uxtb	r2, r2
 80005d0:	f7ff ff2b 	bl	800042a <_ZN9LcdScreen16Lcd4BitWideWriteEhhh>
 80005d4:	e8bd 4038 	ldmia.w	sp!, {r3, r4, r5, lr}
 80005d8:	2027      	movs	r0, #39	@ 0x27
 80005da:	f7ff bdf5 	b.w	80001c8 <_ZN10DelayTimer13DelayMicroSecEt>

080005de <_ZN9LcdScreen12LcdPrintCharEh>:
 80005de:	b510      	push	{r4, lr}
 80005e0:	4604      	mov	r4, r0
 80005e2:	f7ff ff6a 	bl	80004ba <_ZN9LcdScreen11WaitForBusyEv>
 80005e6:	4622      	mov	r2, r4
 80005e8:	2001      	movs	r0, #1
 80005ea:	2100      	movs	r1, #0
 80005ec:	f7ff ff1d 	bl	800042a <_ZN9LcdScreen16Lcd4BitWideWriteEhhh>
 80005f0:	e8bd 4010 	ldmia.w	sp!, {r4, lr}
 80005f4:	202b      	movs	r0, #43	@ 0x2b
 80005f6:	f7ff bde7 	b.w	80001c8 <_ZN10DelayTimer13DelayMicroSecEt>

080005fa <_ZN9LcdScreen8LcdPrintEPc>:
 80005fa:	b510      	push	{r4, lr}
 80005fc:	1e44      	subs	r4, r0, #1
 80005fe:	f814 0f01 	ldrb.w	r0, [r4, #1]!
 8000602:	b900      	cbnz	r0, 8000606 <_ZN9LcdScreen8LcdPrintEPc+0xc>
 8000604:	bd10      	pop	{r4, pc}
 8000606:	f7ff ffea 	bl	80005de <_ZN9LcdScreen12LcdPrintCharEh>
 800060a:	e7f8      	b.n	80005fe <_ZN9LcdScreen8LcdPrintEPc+0x4>

0800060c <_ZN9LcdScreen14LcdPrintNumberEt>:
 800060c:	b537      	push	{r0, r1, r2, r4, r5, lr}
 800060e:	4603      	mov	r3, r0
 8000610:	466a      	mov	r2, sp
 8000612:	4912      	ldr	r1, [pc, #72]	@ (800065c <_ZN9LcdScreen14LcdPrintNumberEt+0x50>)
 8000614:	6808      	ldr	r0, [r1, #0]
 8000616:	7909      	ldrb	r1, [r1, #4]
 8000618:	9000      	str	r0, [sp, #0]
 800061a:	7111      	strb	r1, [r2, #4]
 800061c:	4618      	mov	r0, r3
 800061e:	b9cb      	cbnz	r3, 8000654 <_ZN9LcdScreen14LcdPrintNumberEt+0x48>
 8000620:	4614      	mov	r4, r2
 8000622:	2505      	movs	r5, #5
 8000624:	f814 0b01 	ldrb.w	r0, [r4], #1
 8000628:	3d01      	subs	r5, #1
 800062a:	f7ff ffd8 	bl	80005de <_ZN9LcdScreen12LcdPrintCharEh>
 800062e:	f015 05ff 	ands.w	r5, r5, #255	@ 0xff
 8000632:	d1f7      	bne.n	8000624 <_ZN9LcdScreen14LcdPrintNumberEt+0x18>
 8000634:	b003      	add	sp, #12
 8000636:	bd30      	pop	{r4, r5, pc}
 8000638:	2909      	cmp	r1, #9
 800063a:	d9f1      	bls.n	8000620 <_ZN9LcdScreen14LcdPrintNumberEt+0x14>
 800063c:	fbb0 f4f5 	udiv	r4, r0, r5
 8000640:	fb05 0114 	mls	r1, r5, r4, r0
 8000644:	3130      	adds	r1, #48	@ 0x30
 8000646:	f803 1d01 	strb.w	r1, [r3, #-1]!
 800064a:	4293      	cmp	r3, r2
 800064c:	4601      	mov	r1, r0
 800064e:	b2a0      	uxth	r0, r4
 8000650:	d1f2      	bne.n	8000638 <_ZN9LcdScreen14LcdPrintNumberEt+0x2c>
 8000652:	e7e5      	b.n	8000620 <_ZN9LcdScreen14LcdPrintNumberEt+0x14>
 8000654:	250a      	movs	r5, #10
 8000656:	f10d 0305 	add.w	r3, sp, #5
 800065a:	e7ef      	b.n	800063c <_ZN9LcdScreen14LcdPrintNumberEt+0x30>
 800065c:	0800080c 	.word	0x0800080c

08000660 <_Z10InitClocksv>:
 8000660:	4a08      	ldr	r2, [pc, #32]	@ (8000684 <_Z10InitClocksv+0x24>)
 8000662:	6813      	ldr	r3, [r2, #0]
 8000664:	f023 7386 	bic.w	r3, r3, #17563648	@ 0x10c0000
 8000668:	f423 3380 	bic.w	r3, r3, #65536	@ 0x10000
 800066c:	f443 3380 	orr.w	r3, r3, #65536	@ 0x10000
 8000670:	6013      	str	r3, [r2, #0]
 8000672:	6851      	ldr	r1, [r2, #4]
 8000674:	4b04      	ldr	r3, [pc, #16]	@ (8000688 <_Z10InitClocksv+0x28>)
 8000676:	400b      	ands	r3, r1
 8000678:	f043 6380 	orr.w	r3, r3, #67108864	@ 0x4000000
 800067c:	f043 03a0 	orr.w	r3, r3, #160	@ 0xa0
 8000680:	6053      	str	r3, [r2, #4]
 8000682:	4770      	bx	lr
 8000684:	40021000 	.word	0x40021000
 8000688:	f8ffc00c 	.word	0xf8ffc00c

0800068c <_Z33ALTERNATIVE_FUNCTION_CLOCK_ENABLEv>:
 800068c:	4a02      	ldr	r2, [pc, #8]	@ (8000698 <_Z33ALTERNATIVE_FUNCTION_CLOCK_ENABLEv+0xc>)
 800068e:	6993      	ldr	r3, [r2, #24]
 8000690:	f043 0301 	orr.w	r3, r3, #1
 8000694:	6193      	str	r3, [r2, #24]
 8000696:	4770      	bx	lr
 8000698:	40021000 	.word	0x40021000

0800069c <_Z15PA_CLOCK_ENABLEv>:
 800069c:	4a02      	ldr	r2, [pc, #8]	@ (80006a8 <_Z15PA_CLOCK_ENABLEv+0xc>)
 800069e:	6993      	ldr	r3, [r2, #24]
 80006a0:	f043 0304 	orr.w	r3, r3, #4
 80006a4:	6193      	str	r3, [r2, #24]
 80006a6:	4770      	bx	lr
 80006a8:	40021000 	.word	0x40021000

080006ac <_Z15PB_CLOCK_ENABLEv>:
 80006ac:	4a02      	ldr	r2, [pc, #8]	@ (80006b8 <_Z15PB_CLOCK_ENABLEv+0xc>)
 80006ae:	6993      	ldr	r3, [r2, #24]
 80006b0:	f043 0308 	orr.w	r3, r3, #8
 80006b4:	6193      	str	r3, [r2, #24]
 80006b6:	4770      	bx	lr
 80006b8:	40021000 	.word	0x40021000

080006bc <_Z15PC_CLOCK_ENABLEv>:
 80006bc:	4a02      	ldr	r2, [pc, #8]	@ (80006c8 <_Z15PC_CLOCK_ENABLEv+0xc>)
 80006be:	6993      	ldr	r3, [r2, #24]
 80006c0:	f043 0310 	orr.w	r3, r3, #16
 80006c4:	6193      	str	r3, [r2, #24]
 80006c6:	4770      	bx	lr
 80006c8:	40021000 	.word	0x40021000

080006cc <_Z9InitPortsv>:
 80006cc:	b508      	push	{r3, lr}
 80006ce:	f7ff ffdd 	bl	800068c <_Z33ALTERNATIVE_FUNCTION_CLOCK_ENABLEv>
 80006d2:	f7ff ffe3 	bl	800069c <_Z15PA_CLOCK_ENABLEv>
 80006d6:	f7ff ffe9 	bl	80006ac <_Z15PB_CLOCK_ENABLEv>
 80006da:	e8bd 4008 	ldmia.w	sp!, {r3, lr}
 80006de:	f7ff bfed 	b.w	80006bc <_Z15PC_CLOCK_ENABLEv>
	...

080006e4 <main>:
 80006e4:	b570      	push	{r4, r5, r6, lr}
 80006e6:	4d19      	ldr	r5, [pc, #100]	@ (800074c <main+0x68>)
 80006e8:	f240 50dc 	movw	r0, #1500	@ 0x5dc
 80006ec:	f7ff ffb8 	bl	8000660 <_Z10InitClocksv>
 80006f0:	f7ff ffec 	bl	80006cc <_Z9InitPortsv>
 80006f4:	f7ff fd74 	bl	80001e0 <_ZN10DelayTimer13DelayMilliSecEt>
 80006f8:	f7ff fee6 	bl	80004c8 <_ZN9LcdScreen7LcdInitEv>
 80006fc:	686b      	ldr	r3, [r5, #4]
 80006fe:	4a14      	ldr	r2, [pc, #80]	@ (8000750 <main+0x6c>)
 8000700:	f423 0370 	bic.w	r3, r3, #15728640	@ 0xf00000
 8000704:	f443 03e0 	orr.w	r3, r3, #7340032	@ 0x700000
 8000708:	606b      	str	r3, [r5, #4]
 800070a:	6853      	ldr	r3, [r2, #4]
 800070c:	4811      	ldr	r0, [pc, #68]	@ (8000754 <main+0x70>)
 800070e:	f023 030f 	bic.w	r3, r3, #15
 8000712:	f043 030b 	orr.w	r3, r3, #11
 8000716:	6053      	str	r3, [r2, #4]
 8000718:	f7ff ff6f 	bl	80005fa <_ZN9LcdScreen8LcdPrintEPc>
 800071c:	2400      	movs	r4, #0
 800071e:	f44f 5600 	mov.w	r6, #8192	@ 0x2000
 8000722:	2101      	movs	r1, #1
 8000724:	2000      	movs	r0, #0
 8000726:	f7ff ff45 	bl	80005b4 <_ZN9LcdScreen8LcdToPosEhh>
 800072a:	4620      	mov	r0, r4
 800072c:	f7ff ff6e 	bl	800060c <_ZN9LcdScreen14LcdPrintNumberEt>
 8000730:	f44f 70fa 	mov.w	r0, #500	@ 0x1f4
 8000734:	616e      	str	r6, [r5, #20]
 8000736:	f7ff fd53 	bl	80001e0 <_ZN10DelayTimer13DelayMilliSecEt>
 800073a:	3401      	adds	r4, #1
 800073c:	f44f 70fa 	mov.w	r0, #500	@ 0x1f4
 8000740:	612e      	str	r6, [r5, #16]
 8000742:	b2a4      	uxth	r4, r4
 8000744:	f7ff fd4c 	bl	80001e0 <_ZN10DelayTimer13DelayMilliSecEt>
 8000748:	e7e9      	b.n	800071e <main+0x3a>
 800074a:	bf00      	nop
 800074c:	40011000 	.word	0x40011000
 8000750:	40010800 	.word	0x40010800
 8000754:	08000812 	.word	0x08000812

08000758 <Reset_Handler>:
 8000758:	480d      	ldr	r0, [pc, #52]	@ (8000790 <LoopForever+0x2>)
 800075a:	4685      	mov	sp, r0
 800075c:	f7ff fd11 	bl	8000182 <SystemInit>
 8000760:	480c      	ldr	r0, [pc, #48]	@ (8000794 <LoopForever+0x6>)
 8000762:	490d      	ldr	r1, [pc, #52]	@ (8000798 <LoopForever+0xa>)
 8000764:	4a0d      	ldr	r2, [pc, #52]	@ (800079c <LoopForever+0xe>)
 8000766:	2300      	movs	r3, #0
 8000768:	e002      	b.n	8000770 <LoopCopyDataInit>

0800076a <CopyDataInit>:
 800076a:	58d4      	ldr	r4, [r2, r3]
 800076c:	50c4      	str	r4, [r0, r3]
 800076e:	3304      	adds	r3, #4

08000770 <LoopCopyDataInit>:
 8000770:	18c4      	adds	r4, r0, r3
 8000772:	428c      	cmp	r4, r1
 8000774:	d3f9      	bcc.n	800076a <CopyDataInit>
 8000776:	4a0a      	ldr	r2, [pc, #40]	@ (80007a0 <LoopForever+0x12>)
 8000778:	4c0a      	ldr	r4, [pc, #40]	@ (80007a4 <LoopForever+0x16>)
 800077a:	2300      	movs	r3, #0
 800077c:	e001      	b.n	8000782 <LoopFillZerobss>

0800077e <FillZerobss>:
 800077e:	6013      	str	r3, [r2, #0]
 8000780:	3204      	adds	r2, #4

08000782 <LoopFillZerobss>:
 8000782:	42a2      	cmp	r2, r4
 8000784:	d3fb      	bcc.n	800077e <FillZerobss>
 8000786:	f000 f811 	bl	80007ac <__libc_init_array>
 800078a:	f7ff ffab 	bl	80006e4 <main>

0800078e <LoopForever>:
 800078e:	e7fe      	b.n	800078e <LoopForever>
 8000790:	20005000 	.word	0x20005000
 8000794:	20000000 	.word	0x20000000
 8000798:	20000000 	.word	0x20000000
 800079c:	08000824 	.word	0x08000824
 80007a0:	20000000 	.word	0x20000000
 80007a4:	2000001c 	.word	0x2000001c

080007a8 <ADC1_2_IRQHandler>:
 80007a8:	e7fe      	b.n	80007a8 <ADC1_2_IRQHandler>
	...

080007ac <__libc_init_array>:
 80007ac:	b570      	push	{r4, r5, r6, lr}
 80007ae:	2600      	movs	r6, #0
 80007b0:	4d0c      	ldr	r5, [pc, #48]	@ (80007e4 <__libc_init_array+0x38>)
 80007b2:	4c0d      	ldr	r4, [pc, #52]	@ (80007e8 <__libc_init_array+0x3c>)
 80007b4:	1b64      	subs	r4, r4, r5
 80007b6:	10a4      	asrs	r4, r4, #2
 80007b8:	42a6      	cmp	r6, r4
 80007ba:	d109      	bne.n	80007d0 <__libc_init_array+0x24>
 80007bc:	f000 f81a 	bl	80007f4 <_init>
 80007c0:	2600      	movs	r6, #0
 80007c2:	4d0a      	ldr	r5, [pc, #40]	@ (80007ec <__libc_init_array+0x40>)
 80007c4:	4c0a      	ldr	r4, [pc, #40]	@ (80007f0 <__libc_init_array+0x44>)
 80007c6:	1b64      	subs	r4, r4, r5
 80007c8:	10a4      	asrs	r4, r4, #2
 80007ca:	42a6      	cmp	r6, r4
 80007cc:	d105      	bne.n	80007da <__libc_init_array+0x2e>
 80007ce:	bd70      	pop	{r4, r5, r6, pc}
 80007d0:	f855 3b04 	ldr.w	r3, [r5], #4
 80007d4:	4798      	blx	r3
 80007d6:	3601      	adds	r6, #1
 80007d8:	e7ee      	b.n	80007b8 <__libc_init_array+0xc>
 80007da:	f855 3b04 	ldr.w	r3, [r5], #4
 80007de:	4798      	blx	r3
 80007e0:	3601      	adds	r6, #1
 80007e2:	e7f2      	b.n	80007ca <__libc_init_array+0x1e>
 80007e4:	0800081c 	.word	0x0800081c
 80007e8:	0800081c 	.word	0x0800081c
 80007ec:	0800081c 	.word	0x0800081c
 80007f0:	08000820 	.word	0x08000820

080007f4 <_init>:
 80007f4:	b5f8      	push	{r3, r4, r5, r6, r7, lr}
 80007f6:	bf00      	nop
 80007f8:	bcf8      	pop	{r3, r4, r5, r6, r7}
 80007fa:	bc08      	pop	{r3}
 80007fc:	469e      	mov	lr, r3
 80007fe:	4770      	bx	lr

08000800 <_fini>:
 8000800:	b5f8      	push	{r3, r4, r5, r6, r7, lr}
 8000802:	bf00      	nop
 8000804:	bcf8      	pop	{r3, r4, r5, r6, r7}
 8000806:	bc08      	pop	{r3}
 8000808:	469e      	mov	lr, r3
 800080a:	4770      	bx	lr
