
HumidityMetter.elf:     file format elf32-littlearm

Sections:
Idx Name          Size      VMA       LMA       File off  Algn
  0 .isr_vector   00000130  08000000  08000000  00001000  2**0
                  CONTENTS, ALLOC, LOAD, READONLY, DATA
  1 .text         00002138  08000130  08000130  00001130  2**3
                  CONTENTS, ALLOC, LOAD, READONLY, CODE
  2 .rodata       00000030  08002268  08002268  00003268  2**0
                  CONTENTS, ALLOC, LOAD, READONLY, DATA
  3 .ARM.extab    00000000  08002298  08002298  000032a8  2**0
                  CONTENTS
  4 .ARM          00000008  08002298  08002298  00003298  2**2
                  CONTENTS, ALLOC, LOAD, READONLY, DATA
  5 .preinit_array 00000000  080022a0  080022a8  000032a8  2**0
                  CONTENTS, ALLOC, LOAD, DATA
  6 .init_array   00000004  080022a0  080022a0  000032a0  2**2
                  CONTENTS, ALLOC, LOAD, READONLY, DATA
  7 .fini_array   00000004  080022a4  080022a4  000032a4  2**2
                  CONTENTS, ALLOC, LOAD, READONLY, DATA
  8 .data         00000000  20000000  20000000  000032a8  2**0
                  CONTENTS, ALLOC, LOAD, DATA
  9 .bss          0000001c  20000000  080022a8  00004000  2**2
                  ALLOC
 10 ._user_heap_stack 00000604  2000001c  080022a8  0000401c  2**0
                  ALLOC
 11 .ARM.attributes 00000029  00000000  00000000  000032a8  2**0
                  CONTENTS, READONLY
 12 .comment      00000043  00000000  00000000  000032d1  2**0
                  CONTENTS, READONLY
 13 .debug_frame  000001c4  00000000  00000000  00003314  2**2
                  CONTENTS, READONLY, DEBUGGING, OCTETS

Disassembly of section .text:

08000130 <__do_global_dtors_aux>:
 8000130:	b510      	push	{r4, lr}
 8000132:	4c05      	ldr	r4, [pc, #20]	@ (8000148 <__do_global_dtors_aux+0x18>)
 8000134:	7823      	ldrb	r3, [r4, #0]
 8000136:	b933      	cbnz	r3, 8000146 <__do_global_dtors_aux+0x16>
 8000138:	4b04      	ldr	r3, [pc, #16]	@ (800014c <__do_global_dtors_aux+0x1c>)
 800013a:	b113      	cbz	r3, 8000142 <__do_global_dtors_aux+0x12>
 800013c:	4804      	ldr	r0, [pc, #16]	@ (8000150 <__do_global_dtors_aux+0x20>)
 800013e:	f3af 8000 	nop.w
 8000142:	2301      	movs	r3, #1
 8000144:	7023      	strb	r3, [r4, #0]
 8000146:	bd10      	pop	{r4, pc}
 8000148:	20000000 	.word	0x20000000
 800014c:	00000000 	.word	0x00000000
 8000150:	08002250 	.word	0x08002250

08000154 <frame_dummy>:
 8000154:	b508      	push	{r3, lr}
 8000156:	4b03      	ldr	r3, [pc, #12]	@ (8000164 <frame_dummy+0x10>)
 8000158:	b11b      	cbz	r3, 8000162 <frame_dummy+0xe>
 800015a:	4903      	ldr	r1, [pc, #12]	@ (8000168 <frame_dummy+0x14>)
 800015c:	4803      	ldr	r0, [pc, #12]	@ (800016c <frame_dummy+0x18>)
 800015e:	f3af 8000 	nop.w
 8000162:	bd08      	pop	{r3, pc}
 8000164:	00000000 	.word	0x00000000
 8000168:	20000004 	.word	0x20000004
 800016c:	08002250 	.word	0x08002250

08000170 <__aeabi_drsub>:
 8000170:	f081 4100 	eor.w	r1, r1, #2147483648	@ 0x80000000
 8000174:	e002      	b.n	800017c <__adddf3>
 8000176:	bf00      	nop

08000178 <__aeabi_dsub>:
 8000178:	f083 4300 	eor.w	r3, r3, #2147483648	@ 0x80000000

0800017c <__adddf3>:
 800017c:	b530      	push	{r4, r5, lr}
 800017e:	ea4f 0441 	mov.w	r4, r1, lsl #1
 8000182:	ea4f 0543 	mov.w	r5, r3, lsl #1
 8000186:	ea94 0f05 	teq	r4, r5
 800018a:	bf08      	it	eq
 800018c:	ea90 0f02 	teqeq	r0, r2
 8000190:	bf1f      	itttt	ne
 8000192:	ea54 0c00 	orrsne.w	ip, r4, r0
 8000196:	ea55 0c02 	orrsne.w	ip, r5, r2
 800019a:	ea7f 5c64 	mvnsne.w	ip, r4, asr #21
 800019e:	ea7f 5c65 	mvnsne.w	ip, r5, asr #21
 80001a2:	f000 80e2 	beq.w	800036a <__adddf3+0x1ee>
 80001a6:	ea4f 5454 	mov.w	r4, r4, lsr #21
 80001aa:	ebd4 5555 	rsbs	r5, r4, r5, lsr #21
 80001ae:	bfb8      	it	lt
 80001b0:	426d      	neglt	r5, r5
 80001b2:	dd0c      	ble.n	80001ce <__adddf3+0x52>
 80001b4:	442c      	add	r4, r5
 80001b6:	ea80 0202 	eor.w	r2, r0, r2
 80001ba:	ea81 0303 	eor.w	r3, r1, r3
 80001be:	ea82 0000 	eor.w	r0, r2, r0
 80001c2:	ea83 0101 	eor.w	r1, r3, r1
 80001c6:	ea80 0202 	eor.w	r2, r0, r2
 80001ca:	ea81 0303 	eor.w	r3, r1, r3
 80001ce:	2d36      	cmp	r5, #54	@ 0x36
 80001d0:	bf88      	it	hi
 80001d2:	bd30      	pophi	{r4, r5, pc}
 80001d4:	f011 4f00 	tst.w	r1, #2147483648	@ 0x80000000
 80001d8:	ea4f 3101 	mov.w	r1, r1, lsl #12
 80001dc:	f44f 1c80 	mov.w	ip, #1048576	@ 0x100000
 80001e0:	ea4c 3111 	orr.w	r1, ip, r1, lsr #12
 80001e4:	d002      	beq.n	80001ec <__adddf3+0x70>
 80001e6:	4240      	negs	r0, r0
 80001e8:	eb61 0141 	sbc.w	r1, r1, r1, lsl #1
 80001ec:	f013 4f00 	tst.w	r3, #2147483648	@ 0x80000000
 80001f0:	ea4f 3303 	mov.w	r3, r3, lsl #12
 80001f4:	ea4c 3313 	orr.w	r3, ip, r3, lsr #12
 80001f8:	d002      	beq.n	8000200 <__adddf3+0x84>
 80001fa:	4252      	negs	r2, r2
 80001fc:	eb63 0343 	sbc.w	r3, r3, r3, lsl #1
 8000200:	ea94 0f05 	teq	r4, r5
 8000204:	f000 80a7 	beq.w	8000356 <__adddf3+0x1da>
 8000208:	f1a4 0401 	sub.w	r4, r4, #1
 800020c:	f1d5 0e20 	rsbs	lr, r5, #32
 8000210:	db0d      	blt.n	800022e <__adddf3+0xb2>
 8000212:	fa02 fc0e 	lsl.w	ip, r2, lr
 8000216:	fa22 f205 	lsr.w	r2, r2, r5
 800021a:	1880      	adds	r0, r0, r2
 800021c:	f141 0100 	adc.w	r1, r1, #0
 8000220:	fa03 f20e 	lsl.w	r2, r3, lr
 8000224:	1880      	adds	r0, r0, r2
 8000226:	fa43 f305 	asr.w	r3, r3, r5
 800022a:	4159      	adcs	r1, r3
 800022c:	e00e      	b.n	800024c <__adddf3+0xd0>
 800022e:	f1a5 0520 	sub.w	r5, r5, #32
 8000232:	f10e 0e20 	add.w	lr, lr, #32
 8000236:	2a01      	cmp	r2, #1
 8000238:	fa03 fc0e 	lsl.w	ip, r3, lr
 800023c:	bf28      	it	cs
 800023e:	f04c 0c02 	orrcs.w	ip, ip, #2
 8000242:	fa43 f305 	asr.w	r3, r3, r5
 8000246:	18c0      	adds	r0, r0, r3
 8000248:	eb51 71e3 	adcs.w	r1, r1, r3, asr #31
 800024c:	f001 4500 	and.w	r5, r1, #2147483648	@ 0x80000000
 8000250:	d507      	bpl.n	8000262 <__adddf3+0xe6>
 8000252:	f04f 0e00 	mov.w	lr, #0
 8000256:	f1dc 0c00 	rsbs	ip, ip, #0
 800025a:	eb7e 0000 	sbcs.w	r0, lr, r0
 800025e:	eb6e 0101 	sbc.w	r1, lr, r1
 8000262:	f5b1 1f80 	cmp.w	r1, #1048576	@ 0x100000
 8000266:	d31b      	bcc.n	80002a0 <__adddf3+0x124>
 8000268:	f5b1 1f00 	cmp.w	r1, #2097152	@ 0x200000
 800026c:	d30c      	bcc.n	8000288 <__adddf3+0x10c>
 800026e:	0849      	lsrs	r1, r1, #1
 8000270:	ea5f 0030 	movs.w	r0, r0, rrx
 8000274:	ea4f 0c3c 	mov.w	ip, ip, rrx
 8000278:	f104 0401 	add.w	r4, r4, #1
 800027c:	ea4f 5244 	mov.w	r2, r4, lsl #21
 8000280:	f512 0f80 	cmn.w	r2, #4194304	@ 0x400000
 8000284:	f080 809a 	bcs.w	80003bc <__adddf3+0x240>
 8000288:	f1bc 4f00 	cmp.w	ip, #2147483648	@ 0x80000000
 800028c:	bf08      	it	eq
 800028e:	ea5f 0c50 	movseq.w	ip, r0, lsr #1
 8000292:	f150 0000 	adcs.w	r0, r0, #0
 8000296:	eb41 5104 	adc.w	r1, r1, r4, lsl #20
 800029a:	ea41 0105 	orr.w	r1, r1, r5
 800029e:	bd30      	pop	{r4, r5, pc}
 80002a0:	ea5f 0c4c 	movs.w	ip, ip, lsl #1
 80002a4:	4140      	adcs	r0, r0
 80002a6:	eb41 0101 	adc.w	r1, r1, r1
 80002aa:	3c01      	subs	r4, #1
 80002ac:	bf28      	it	cs
 80002ae:	f5b1 1f80 	cmpcs.w	r1, #1048576	@ 0x100000
 80002b2:	d2e9      	bcs.n	8000288 <__adddf3+0x10c>
 80002b4:	f091 0f00 	teq	r1, #0
 80002b8:	bf04      	itt	eq
 80002ba:	4601      	moveq	r1, r0
 80002bc:	2000      	moveq	r0, #0
 80002be:	fab1 f381 	clz	r3, r1
 80002c2:	bf08      	it	eq
 80002c4:	3320      	addeq	r3, #32
 80002c6:	f1a3 030b 	sub.w	r3, r3, #11
 80002ca:	f1b3 0220 	subs.w	r2, r3, #32
 80002ce:	da0c      	bge.n	80002ea <__adddf3+0x16e>
 80002d0:	320c      	adds	r2, #12
 80002d2:	dd08      	ble.n	80002e6 <__adddf3+0x16a>
 80002d4:	f102 0c14 	add.w	ip, r2, #20
 80002d8:	f1c2 020c 	rsb	r2, r2, #12
 80002dc:	fa01 f00c 	lsl.w	r0, r1, ip
 80002e0:	fa21 f102 	lsr.w	r1, r1, r2
 80002e4:	e00c      	b.n	8000300 <__adddf3+0x184>
 80002e6:	f102 0214 	add.w	r2, r2, #20
 80002ea:	bfd8      	it	le
 80002ec:	f1c2 0c20 	rsble	ip, r2, #32
 80002f0:	fa01 f102 	lsl.w	r1, r1, r2
 80002f4:	fa20 fc0c 	lsr.w	ip, r0, ip
 80002f8:	bfdc      	itt	le
 80002fa:	ea41 010c 	orrle.w	r1, r1, ip
 80002fe:	4090      	lslle	r0, r2
 8000300:	1ae4      	subs	r4, r4, r3
 8000302:	bfa2      	ittt	ge
 8000304:	eb01 5104 	addge.w	r1, r1, r4, lsl #20
 8000308:	4329      	orrge	r1, r5
 800030a:	bd30      	popge	{r4, r5, pc}
 800030c:	ea6f 0404 	mvn.w	r4, r4
 8000310:	3c1f      	subs	r4, #31
 8000312:	da1c      	bge.n	800034e <__adddf3+0x1d2>
 8000314:	340c      	adds	r4, #12
 8000316:	dc0e      	bgt.n	8000336 <__adddf3+0x1ba>
 8000318:	f104 0414 	add.w	r4, r4, #20
 800031c:	f1c4 0220 	rsb	r2, r4, #32
 8000320:	fa20 f004 	lsr.w	r0, r0, r4
 8000324:	fa01 f302 	lsl.w	r3, r1, r2
 8000328:	ea40 0003 	orr.w	r0, r0, r3
 800032c:	fa21 f304 	lsr.w	r3, r1, r4
 8000330:	ea45 0103 	orr.w	r1, r5, r3
 8000334:	bd30      	pop	{r4, r5, pc}
 8000336:	f1c4 040c 	rsb	r4, r4, #12
 800033a:	f1c4 0220 	rsb	r2, r4, #32
 800033e:	fa20 f002 	lsr.w	r0, r0, r2
 8000342:	fa01 f304 	lsl.w	r3, r1, r4
 8000346:	ea40 0003 	orr.w	r0, r0, r3
 800034a:	4629      	mov	r1, r5
 800034c:	bd30      	pop	{r4, r5, pc}
 800034e:	fa21 f004 	lsr.w	r0, r1, r4
 8000352:	4629      	mov	r1, r5
 8000354:	bd30      	pop	{r4, r5, pc}
 8000356:	f094 0f00 	teq	r4, #0
 800035a:	f483 1380 	eor.w	r3, r3, #1048576	@ 0x100000
 800035e:	bf06      	itte	eq
 8000360:	f481 1180 	eoreq.w	r1, r1, #1048576	@ 0x100000
 8000364:	3401      	addeq	r4, #1
 8000366:	3d01      	subne	r5, #1
 8000368:	e74e      	b.n	8000208 <__adddf3+0x8c>
 800036a:	ea7f 5c64 	mvns.w	ip, r4, asr #21
 800036e:	bf18      	it	ne
 8000370:	ea7f 5c65 	mvnsne.w	ip, r5, asr #21
 8000374:	d029      	beq.n	80003ca <__adddf3+0x24e>
 8000376:	ea94 0f05 	teq	r4, r5
 800037a:	bf08      	it	eq
 800037c:	ea90 0f02 	teqeq	r0, r2
 8000380:	d005      	beq.n	800038e <__adddf3+0x212>
 8000382:	ea54 0c00 	orrs.w	ip, r4, r0
 8000386:	bf04      	itt	eq
 8000388:	4619      	moveq	r1, r3
 800038a:	4610      	moveq	r0, r2
 800038c:	bd30      	pop	{r4, r5, pc}
 800038e:	ea91 0f03 	teq	r1, r3
 8000392:	bf1e      	ittt	ne
 8000394:	2100      	movne	r1, #0
 8000396:	2000      	movne	r0, #0
 8000398:	bd30      	popne	{r4, r5, pc}
 800039a:	ea5f 5c54 	movs.w	ip, r4, lsr #21
 800039e:	d105      	bne.n	80003ac <__adddf3+0x230>
 80003a0:	0040      	lsls	r0, r0, #1
 80003a2:	4149      	adcs	r1, r1
 80003a4:	bf28      	it	cs
 80003a6:	f041 4100 	orrcs.w	r1, r1, #2147483648	@ 0x80000000
 80003aa:	bd30      	pop	{r4, r5, pc}
 80003ac:	f514 0480 	adds.w	r4, r4, #4194304	@ 0x400000
 80003b0:	bf3c      	itt	cc
 80003b2:	f501 1180 	addcc.w	r1, r1, #1048576	@ 0x100000
 80003b6:	bd30      	popcc	{r4, r5, pc}
 80003b8:	f001 4500 	and.w	r5, r1, #2147483648	@ 0x80000000
 80003bc:	f045 41fe 	orr.w	r1, r5, #2130706432	@ 0x7f000000
 80003c0:	f441 0170 	orr.w	r1, r1, #15728640	@ 0xf00000
 80003c4:	f04f 0000 	mov.w	r0, #0
 80003c8:	bd30      	pop	{r4, r5, pc}
 80003ca:	ea7f 5c64 	mvns.w	ip, r4, asr #21
 80003ce:	bf1a      	itte	ne
 80003d0:	4619      	movne	r1, r3
 80003d2:	4610      	movne	r0, r2
 80003d4:	ea7f 5c65 	mvnseq.w	ip, r5, asr #21
 80003d8:	bf1c      	itt	ne
 80003da:	460b      	movne	r3, r1
 80003dc:	4602      	movne	r2, r0
 80003de:	ea50 3401 	orrs.w	r4, r0, r1, lsl #12
 80003e2:	bf06      	itte	eq
 80003e4:	ea52 3503 	orrseq.w	r5, r2, r3, lsl #12
 80003e8:	ea91 0f03 	teqeq	r1, r3
 80003ec:	f441 2100 	orrne.w	r1, r1, #524288	@ 0x80000
 80003f0:	bd30      	pop	{r4, r5, pc}
 80003f2:	bf00      	nop

080003f4 <__aeabi_ui2d>:
 80003f4:	f090 0f00 	teq	r0, #0
 80003f8:	bf04      	itt	eq
 80003fa:	2100      	moveq	r1, #0
 80003fc:	4770      	bxeq	lr
 80003fe:	b530      	push	{r4, r5, lr}
 8000400:	f44f 6480 	mov.w	r4, #1024	@ 0x400
 8000404:	f104 0432 	add.w	r4, r4, #50	@ 0x32
 8000408:	f04f 0500 	mov.w	r5, #0
 800040c:	f04f 0100 	mov.w	r1, #0
 8000410:	e750      	b.n	80002b4 <__adddf3+0x138>
 8000412:	bf00      	nop

08000414 <__aeabi_i2d>:
 8000414:	f090 0f00 	teq	r0, #0
 8000418:	bf04      	itt	eq
 800041a:	2100      	moveq	r1, #0
 800041c:	4770      	bxeq	lr
 800041e:	b530      	push	{r4, r5, lr}
 8000420:	f44f 6480 	mov.w	r4, #1024	@ 0x400
 8000424:	f104 0432 	add.w	r4, r4, #50	@ 0x32
 8000428:	f010 4500 	ands.w	r5, r0, #2147483648	@ 0x80000000
 800042c:	bf48      	it	mi
 800042e:	4240      	negmi	r0, r0
 8000430:	f04f 0100 	mov.w	r1, #0
 8000434:	e73e      	b.n	80002b4 <__adddf3+0x138>
 8000436:	bf00      	nop

08000438 <__aeabi_f2d>:
 8000438:	0042      	lsls	r2, r0, #1
 800043a:	ea4f 01e2 	mov.w	r1, r2, asr #3
 800043e:	ea4f 0131 	mov.w	r1, r1, rrx
 8000442:	ea4f 7002 	mov.w	r0, r2, lsl #28
 8000446:	bf1f      	itttt	ne
 8000448:	f012 437f 	andsne.w	r3, r2, #4278190080	@ 0xff000000
 800044c:	f093 4f7f 	teqne	r3, #4278190080	@ 0xff000000
 8000450:	f081 5160 	eorne.w	r1, r1, #939524096	@ 0x38000000
 8000454:	4770      	bxne	lr
 8000456:	f032 427f 	bics.w	r2, r2, #4278190080	@ 0xff000000
 800045a:	bf08      	it	eq
 800045c:	4770      	bxeq	lr
 800045e:	f093 4f7f 	teq	r3, #4278190080	@ 0xff000000
 8000462:	bf04      	itt	eq
 8000464:	f441 2100 	orreq.w	r1, r1, #524288	@ 0x80000
 8000468:	4770      	bxeq	lr
 800046a:	b530      	push	{r4, r5, lr}
 800046c:	f44f 7460 	mov.w	r4, #896	@ 0x380
 8000470:	f001 4500 	and.w	r5, r1, #2147483648	@ 0x80000000
 8000474:	f021 4100 	bic.w	r1, r1, #2147483648	@ 0x80000000
 8000478:	e71c      	b.n	80002b4 <__adddf3+0x138>
 800047a:	bf00      	nop

0800047c <__aeabi_ul2d>:
 800047c:	ea50 0201 	orrs.w	r2, r0, r1
 8000480:	bf08      	it	eq
 8000482:	4770      	bxeq	lr
 8000484:	b530      	push	{r4, r5, lr}
 8000486:	f04f 0500 	mov.w	r5, #0
 800048a:	e00a      	b.n	80004a2 <__aeabi_l2d+0x16>

0800048c <__aeabi_l2d>:
 800048c:	ea50 0201 	orrs.w	r2, r0, r1
 8000490:	bf08      	it	eq
 8000492:	4770      	bxeq	lr
 8000494:	b530      	push	{r4, r5, lr}
 8000496:	f011 4500 	ands.w	r5, r1, #2147483648	@ 0x80000000
 800049a:	d502      	bpl.n	80004a2 <__aeabi_l2d+0x16>
 800049c:	4240      	negs	r0, r0
 800049e:	eb61 0141 	sbc.w	r1, r1, r1, lsl #1
 80004a2:	f44f 6480 	mov.w	r4, #1024	@ 0x400
 80004a6:	f104 0432 	add.w	r4, r4, #50	@ 0x32
 80004aa:	ea5f 5c91 	movs.w	ip, r1, lsr #22
 80004ae:	f43f aed8 	beq.w	8000262 <__adddf3+0xe6>
 80004b2:	f04f 0203 	mov.w	r2, #3
 80004b6:	ea5f 0cdc 	movs.w	ip, ip, lsr #3
 80004ba:	bf18      	it	ne
 80004bc:	3203      	addne	r2, #3
 80004be:	ea5f 0cdc 	movs.w	ip, ip, lsr #3
 80004c2:	bf18      	it	ne
 80004c4:	3203      	addne	r2, #3
 80004c6:	eb02 02dc 	add.w	r2, r2, ip, lsr #3
 80004ca:	f1c2 0320 	rsb	r3, r2, #32
 80004ce:	fa00 fc03 	lsl.w	ip, r0, r3
 80004d2:	fa20 f002 	lsr.w	r0, r0, r2
 80004d6:	fa01 fe03 	lsl.w	lr, r1, r3
 80004da:	ea40 000e 	orr.w	r0, r0, lr
 80004de:	fa21 f102 	lsr.w	r1, r1, r2
 80004e2:	4414      	add	r4, r2
 80004e4:	e6bd      	b.n	8000262 <__adddf3+0xe6>
 80004e6:	bf00      	nop

080004e8 <__aeabi_dmul>:
 80004e8:	b570      	push	{r4, r5, r6, lr}
 80004ea:	f04f 0cff 	mov.w	ip, #255	@ 0xff
 80004ee:	f44c 6ce0 	orr.w	ip, ip, #1792	@ 0x700
 80004f2:	ea1c 5411 	ands.w	r4, ip, r1, lsr #20
 80004f6:	bf1d      	ittte	ne
 80004f8:	ea1c 5513 	andsne.w	r5, ip, r3, lsr #20
 80004fc:	ea94 0f0c 	teqne	r4, ip
 8000500:	ea95 0f0c 	teqne	r5, ip
 8000504:	f000 f8de 	bleq	80006c4 <__aeabi_dmul+0x1dc>
 8000508:	442c      	add	r4, r5
 800050a:	ea81 0603 	eor.w	r6, r1, r3
 800050e:	ea21 514c 	bic.w	r1, r1, ip, lsl #21
 8000512:	ea23 534c 	bic.w	r3, r3, ip, lsl #21
 8000516:	ea50 3501 	orrs.w	r5, r0, r1, lsl #12
 800051a:	bf18      	it	ne
 800051c:	ea52 3503 	orrsne.w	r5, r2, r3, lsl #12
 8000520:	f441 1180 	orr.w	r1, r1, #1048576	@ 0x100000
 8000524:	f443 1380 	orr.w	r3, r3, #1048576	@ 0x100000
 8000528:	d038      	beq.n	800059c <__aeabi_dmul+0xb4>
 800052a:	fba0 ce02 	umull	ip, lr, r0, r2
 800052e:	f04f 0500 	mov.w	r5, #0
 8000532:	fbe1 e502 	umlal	lr, r5, r1, r2
 8000536:	f006 4200 	and.w	r2, r6, #2147483648	@ 0x80000000
 800053a:	fbe0 e503 	umlal	lr, r5, r0, r3
 800053e:	f04f 0600 	mov.w	r6, #0
 8000542:	fbe1 5603 	umlal	r5, r6, r1, r3
 8000546:	f09c 0f00 	teq	ip, #0
 800054a:	bf18      	it	ne
 800054c:	f04e 0e01 	orrne.w	lr, lr, #1
 8000550:	f1a4 04ff 	sub.w	r4, r4, #255	@ 0xff
 8000554:	f5b6 7f00 	cmp.w	r6, #512	@ 0x200
 8000558:	f564 7440 	sbc.w	r4, r4, #768	@ 0x300
 800055c:	d204      	bcs.n	8000568 <__aeabi_dmul+0x80>
 800055e:	ea5f 0e4e 	movs.w	lr, lr, lsl #1
 8000562:	416d      	adcs	r5, r5
 8000564:	eb46 0606 	adc.w	r6, r6, r6
 8000568:	ea42 21c6 	orr.w	r1, r2, r6, lsl #11
 800056c:	ea41 5155 	orr.w	r1, r1, r5, lsr #21
 8000570:	ea4f 20c5 	mov.w	r0, r5, lsl #11
 8000574:	ea40 505e 	orr.w	r0, r0, lr, lsr #21
 8000578:	ea4f 2ece 	mov.w	lr, lr, lsl #11
 800057c:	f1b4 0cfd 	subs.w	ip, r4, #253	@ 0xfd
 8000580:	bf88      	it	hi
 8000582:	f5bc 6fe0 	cmphi.w	ip, #1792	@ 0x700
 8000586:	d81e      	bhi.n	80005c6 <__aeabi_dmul+0xde>
 8000588:	f1be 4f00 	cmp.w	lr, #2147483648	@ 0x80000000
 800058c:	bf08      	it	eq
 800058e:	ea5f 0e50 	movseq.w	lr, r0, lsr #1
 8000592:	f150 0000 	adcs.w	r0, r0, #0
 8000596:	eb41 5104 	adc.w	r1, r1, r4, lsl #20
 800059a:	bd70      	pop	{r4, r5, r6, pc}
 800059c:	f006 4600 	and.w	r6, r6, #2147483648	@ 0x80000000
 80005a0:	ea46 0101 	orr.w	r1, r6, r1
 80005a4:	ea40 0002 	orr.w	r0, r0, r2
 80005a8:	ea81 0103 	eor.w	r1, r1, r3
 80005ac:	ebb4 045c 	subs.w	r4, r4, ip, lsr #1
 80005b0:	bfc2      	ittt	gt
 80005b2:	ebd4 050c 	rsbsgt	r5, r4, ip
 80005b6:	ea41 5104 	orrgt.w	r1, r1, r4, lsl #20
 80005ba:	bd70      	popgt	{r4, r5, r6, pc}
 80005bc:	f441 1180 	orr.w	r1, r1, #1048576	@ 0x100000
 80005c0:	f04f 0e00 	mov.w	lr, #0
 80005c4:	3c01      	subs	r4, #1
 80005c6:	f300 80ab 	bgt.w	8000720 <__aeabi_dmul+0x238>
 80005ca:	f114 0f36 	cmn.w	r4, #54	@ 0x36
 80005ce:	bfde      	ittt	le
 80005d0:	2000      	movle	r0, #0
 80005d2:	f001 4100 	andle.w	r1, r1, #2147483648	@ 0x80000000
 80005d6:	bd70      	pople	{r4, r5, r6, pc}
 80005d8:	f1c4 0400 	rsb	r4, r4, #0
 80005dc:	3c20      	subs	r4, #32
 80005de:	da35      	bge.n	800064c <__aeabi_dmul+0x164>
 80005e0:	340c      	adds	r4, #12
 80005e2:	dc1b      	bgt.n	800061c <__aeabi_dmul+0x134>
 80005e4:	f104 0414 	add.w	r4, r4, #20
 80005e8:	f1c4 0520 	rsb	r5, r4, #32
 80005ec:	fa00 f305 	lsl.w	r3, r0, r5
 80005f0:	fa20 f004 	lsr.w	r0, r0, r4
 80005f4:	fa01 f205 	lsl.w	r2, r1, r5
 80005f8:	ea40 0002 	orr.w	r0, r0, r2
 80005fc:	f001 4200 	and.w	r2, r1, #2147483648	@ 0x80000000
 8000600:	f021 4100 	bic.w	r1, r1, #2147483648	@ 0x80000000
 8000604:	eb10 70d3 	adds.w	r0, r0, r3, lsr #31
 8000608:	fa21 f604 	lsr.w	r6, r1, r4
 800060c:	eb42 0106 	adc.w	r1, r2, r6
 8000610:	ea5e 0e43 	orrs.w	lr, lr, r3, lsl #1
 8000614:	bf08      	it	eq
 8000616:	ea20 70d3 	biceq.w	r0, r0, r3, lsr #31
 800061a:	bd70      	pop	{r4, r5, r6, pc}
 800061c:	f1c4 040c 	rsb	r4, r4, #12
 8000620:	f1c4 0520 	rsb	r5, r4, #32
 8000624:	fa00 f304 	lsl.w	r3, r0, r4
 8000628:	fa20 f005 	lsr.w	r0, r0, r5
 800062c:	fa01 f204 	lsl.w	r2, r1, r4
 8000630:	ea40 0002 	orr.w	r0, r0, r2
 8000634:	f001 4100 	and.w	r1, r1, #2147483648	@ 0x80000000
 8000638:	eb10 70d3 	adds.w	r0, r0, r3, lsr #31
 800063c:	f141 0100 	adc.w	r1, r1, #0
 8000640:	ea5e 0e43 	orrs.w	lr, lr, r3, lsl #1
 8000644:	bf08      	it	eq
 8000646:	ea20 70d3 	biceq.w	r0, r0, r3, lsr #31
 800064a:	bd70      	pop	{r4, r5, r6, pc}
 800064c:	f1c4 0520 	rsb	r5, r4, #32
 8000650:	fa00 f205 	lsl.w	r2, r0, r5
 8000654:	ea4e 0e02 	orr.w	lr, lr, r2
 8000658:	fa20 f304 	lsr.w	r3, r0, r4
 800065c:	fa01 f205 	lsl.w	r2, r1, r5
 8000660:	ea43 0302 	orr.w	r3, r3, r2
 8000664:	fa21 f004 	lsr.w	r0, r1, r4
 8000668:	f001 4100 	and.w	r1, r1, #2147483648	@ 0x80000000
 800066c:	fa21 f204 	lsr.w	r2, r1, r4
 8000670:	ea20 0002 	bic.w	r0, r0, r2
 8000674:	eb00 70d3 	add.w	r0, r0, r3, lsr #31
 8000678:	ea5e 0e43 	orrs.w	lr, lr, r3, lsl #1
 800067c:	bf08      	it	eq
 800067e:	ea20 70d3 	biceq.w	r0, r0, r3, lsr #31
 8000682:	bd70      	pop	{r4, r5, r6, pc}
 8000684:	f094 0f00 	teq	r4, #0
 8000688:	d10f      	bne.n	80006aa <__aeabi_dmul+0x1c2>
 800068a:	f001 4600 	and.w	r6, r1, #2147483648	@ 0x80000000
 800068e:	0040      	lsls	r0, r0, #1
 8000690:	eb41 0101 	adc.w	r1, r1, r1
 8000694:	f411 1f80 	tst.w	r1, #1048576	@ 0x100000
 8000698:	bf08      	it	eq
 800069a:	3c01      	subeq	r4, #1
 800069c:	d0f7      	beq.n	800068e <__aeabi_dmul+0x1a6>
 800069e:	ea41 0106 	orr.w	r1, r1, r6
 80006a2:	f095 0f00 	teq	r5, #0
 80006a6:	bf18      	it	ne
 80006a8:	4770      	bxne	lr
 80006aa:	f003 4600 	and.w	r6, r3, #2147483648	@ 0x80000000
 80006ae:	0052      	lsls	r2, r2, #1
 80006b0:	eb43 0303 	adc.w	r3, r3, r3
 80006b4:	f413 1f80 	tst.w	r3, #1048576	@ 0x100000
 80006b8:	bf08      	it	eq
 80006ba:	3d01      	subeq	r5, #1
 80006bc:	d0f7      	beq.n	80006ae <__aeabi_dmul+0x1c6>
 80006be:	ea43 0306 	orr.w	r3, r3, r6
 80006c2:	4770      	bx	lr
 80006c4:	ea94 0f0c 	teq	r4, ip
 80006c8:	ea0c 5513 	and.w	r5, ip, r3, lsr #20
 80006cc:	bf18      	it	ne
 80006ce:	ea95 0f0c 	teqne	r5, ip
 80006d2:	d00c      	beq.n	80006ee <__aeabi_dmul+0x206>
 80006d4:	ea50 0641 	orrs.w	r6, r0, r1, lsl #1
 80006d8:	bf18      	it	ne
 80006da:	ea52 0643 	orrsne.w	r6, r2, r3, lsl #1
 80006de:	d1d1      	bne.n	8000684 <__aeabi_dmul+0x19c>
 80006e0:	ea81 0103 	eor.w	r1, r1, r3
 80006e4:	f001 4100 	and.w	r1, r1, #2147483648	@ 0x80000000
 80006e8:	f04f 0000 	mov.w	r0, #0
 80006ec:	bd70      	pop	{r4, r5, r6, pc}
 80006ee:	ea50 0641 	orrs.w	r6, r0, r1, lsl #1
 80006f2:	bf06      	itte	eq
 80006f4:	4610      	moveq	r0, r2
 80006f6:	4619      	moveq	r1, r3
 80006f8:	ea52 0643 	orrsne.w	r6, r2, r3, lsl #1
 80006fc:	d019      	beq.n	8000732 <__aeabi_dmul+0x24a>
 80006fe:	ea94 0f0c 	teq	r4, ip
 8000702:	d102      	bne.n	800070a <__aeabi_dmul+0x222>
 8000704:	ea50 3601 	orrs.w	r6, r0, r1, lsl #12
 8000708:	d113      	bne.n	8000732 <__aeabi_dmul+0x24a>
 800070a:	ea95 0f0c 	teq	r5, ip
 800070e:	d105      	bne.n	800071c <__aeabi_dmul+0x234>
 8000710:	ea52 3603 	orrs.w	r6, r2, r3, lsl #12
 8000714:	bf1c      	itt	ne
 8000716:	4610      	movne	r0, r2
 8000718:	4619      	movne	r1, r3
 800071a:	d10a      	bne.n	8000732 <__aeabi_dmul+0x24a>
 800071c:	ea81 0103 	eor.w	r1, r1, r3
 8000720:	f001 4100 	and.w	r1, r1, #2147483648	@ 0x80000000
 8000724:	f041 41fe 	orr.w	r1, r1, #2130706432	@ 0x7f000000
 8000728:	f441 0170 	orr.w	r1, r1, #15728640	@ 0xf00000
 800072c:	f04f 0000 	mov.w	r0, #0
 8000730:	bd70      	pop	{r4, r5, r6, pc}
 8000732:	f041 41fe 	orr.w	r1, r1, #2130706432	@ 0x7f000000
 8000736:	f441 0178 	orr.w	r1, r1, #16252928	@ 0xf80000
 800073a:	bd70      	pop	{r4, r5, r6, pc}

0800073c <__aeabi_ddiv>:
 800073c:	b570      	push	{r4, r5, r6, lr}
 800073e:	f04f 0cff 	mov.w	ip, #255	@ 0xff
 8000742:	f44c 6ce0 	orr.w	ip, ip, #1792	@ 0x700
 8000746:	ea1c 5411 	ands.w	r4, ip, r1, lsr #20
 800074a:	bf1d      	ittte	ne
 800074c:	ea1c 5513 	andsne.w	r5, ip, r3, lsr #20
 8000750:	ea94 0f0c 	teqne	r4, ip
 8000754:	ea95 0f0c 	teqne	r5, ip
 8000758:	f000 f8a7 	bleq	80008aa <__aeabi_ddiv+0x16e>
 800075c:	eba4 0405 	sub.w	r4, r4, r5
 8000760:	ea81 0e03 	eor.w	lr, r1, r3
 8000764:	ea52 3503 	orrs.w	r5, r2, r3, lsl #12
 8000768:	ea4f 3101 	mov.w	r1, r1, lsl #12
 800076c:	f000 8088 	beq.w	8000880 <__aeabi_ddiv+0x144>
 8000770:	ea4f 3303 	mov.w	r3, r3, lsl #12
 8000774:	f04f 5580 	mov.w	r5, #268435456	@ 0x10000000
 8000778:	ea45 1313 	orr.w	r3, r5, r3, lsr #4
 800077c:	ea43 6312 	orr.w	r3, r3, r2, lsr #24
 8000780:	ea4f 2202 	mov.w	r2, r2, lsl #8
 8000784:	ea45 1511 	orr.w	r5, r5, r1, lsr #4
 8000788:	ea45 6510 	orr.w	r5, r5, r0, lsr #24
 800078c:	ea4f 2600 	mov.w	r6, r0, lsl #8
 8000790:	f00e 4100 	and.w	r1, lr, #2147483648	@ 0x80000000
 8000794:	429d      	cmp	r5, r3
 8000796:	bf08      	it	eq
 8000798:	4296      	cmpeq	r6, r2
 800079a:	f144 04fd 	adc.w	r4, r4, #253	@ 0xfd
 800079e:	f504 7440 	add.w	r4, r4, #768	@ 0x300
 80007a2:	d202      	bcs.n	80007aa <__aeabi_ddiv+0x6e>
 80007a4:	085b      	lsrs	r3, r3, #1
 80007a6:	ea4f 0232 	mov.w	r2, r2, rrx
 80007aa:	1ab6      	subs	r6, r6, r2
 80007ac:	eb65 0503 	sbc.w	r5, r5, r3
 80007b0:	085b      	lsrs	r3, r3, #1
 80007b2:	ea4f 0232 	mov.w	r2, r2, rrx
 80007b6:	f44f 1080 	mov.w	r0, #1048576	@ 0x100000
 80007ba:	f44f 2c00 	mov.w	ip, #524288	@ 0x80000
 80007be:	ebb6 0e02 	subs.w	lr, r6, r2
 80007c2:	eb75 0e03 	sbcs.w	lr, r5, r3
 80007c6:	bf22      	ittt	cs
 80007c8:	1ab6      	subcs	r6, r6, r2
 80007ca:	4675      	movcs	r5, lr
 80007cc:	ea40 000c 	orrcs.w	r0, r0, ip
 80007d0:	085b      	lsrs	r3, r3, #1
 80007d2:	ea4f 0232 	mov.w	r2, r2, rrx
 80007d6:	ebb6 0e02 	subs.w	lr, r6, r2
 80007da:	eb75 0e03 	sbcs.w	lr, r5, r3
 80007de:	bf22      	ittt	cs
 80007e0:	1ab6      	subcs	r6, r6, r2
 80007e2:	4675      	movcs	r5, lr
 80007e4:	ea40 005c 	orrcs.w	r0, r0, ip, lsr #1
 80007e8:	085b      	lsrs	r3, r3, #1
 80007ea:	ea4f 0232 	mov.w	r2, r2, rrx
 80007ee:	ebb6 0e02 	subs.w	lr, r6, r2
 80007f2:	eb75 0e03 	sbcs.w	lr, r5, r3
 80007f6:	bf22      	ittt	cs
 80007f8:	1ab6      	subcs	r6, r6, r2
 80007fa:	4675      	movcs	r5, lr
 80007fc:	ea40 009c 	orrcs.w	r0, r0, ip, lsr #2
 8000800:	085b      	lsrs	r3, r3, #1
 8000802:	ea4f 0232 	mov.w	r2, r2, rrx
 8000806:	ebb6 0e02 	subs.w	lr, r6, r2
 800080a:	eb75 0e03 	sbcs.w	lr, r5, r3
 800080e:	bf22      	ittt	cs
 8000810:	1ab6      	subcs	r6, r6, r2
 8000812:	4675      	movcs	r5, lr
 8000814:	ea40 00dc 	orrcs.w	r0, r0, ip, lsr #3
 8000818:	ea55 0e06 	orrs.w	lr, r5, r6
 800081c:	d018      	beq.n	8000850 <__aeabi_ddiv+0x114>
 800081e:	ea4f 1505 	mov.w	r5, r5, lsl #4
 8000822:	ea45 7516 	orr.w	r5, r5, r6, lsr #28
 8000826:	ea4f 1606 	mov.w	r6, r6, lsl #4
 800082a:	ea4f 03c3 	mov.w	r3, r3, lsl #3
 800082e:	ea43 7352 	orr.w	r3, r3, r2, lsr #29
 8000832:	ea4f 02c2 	mov.w	r2, r2, lsl #3
 8000836:	ea5f 1c1c 	movs.w	ip, ip, lsr #4
 800083a:	d1c0      	bne.n	80007be <__aeabi_ddiv+0x82>
 800083c:	f411 1f80 	tst.w	r1, #1048576	@ 0x100000
 8000840:	d10b      	bne.n	800085a <__aeabi_ddiv+0x11e>
 8000842:	ea41 0100 	orr.w	r1, r1, r0
 8000846:	f04f 0000 	mov.w	r0, #0
 800084a:	f04f 4c00 	mov.w	ip, #2147483648	@ 0x80000000
 800084e:	e7b6      	b.n	80007be <__aeabi_ddiv+0x82>
 8000850:	f411 1f80 	tst.w	r1, #1048576	@ 0x100000
 8000854:	bf04      	itt	eq
 8000856:	4301      	orreq	r1, r0
 8000858:	2000      	moveq	r0, #0
 800085a:	f1b4 0cfd 	subs.w	ip, r4, #253	@ 0xfd
 800085e:	bf88      	it	hi
 8000860:	f5bc 6fe0 	cmphi.w	ip, #1792	@ 0x700
 8000864:	f63f aeaf 	bhi.w	80005c6 <__aeabi_dmul+0xde>
 8000868:	ebb5 0c03 	subs.w	ip, r5, r3
 800086c:	bf04      	itt	eq
 800086e:	ebb6 0c02 	subseq.w	ip, r6, r2
 8000872:	ea5f 0c50 	movseq.w	ip, r0, lsr #1
 8000876:	f150 0000 	adcs.w	r0, r0, #0
 800087a:	eb41 5104 	adc.w	r1, r1, r4, lsl #20
 800087e:	bd70      	pop	{r4, r5, r6, pc}
 8000880:	f00e 4e00 	and.w	lr, lr, #2147483648	@ 0x80000000
 8000884:	ea4e 3111 	orr.w	r1, lr, r1, lsr #12
 8000888:	eb14 045c 	adds.w	r4, r4, ip, lsr #1
 800088c:	bfc2      	ittt	gt
 800088e:	ebd4 050c 	rsbsgt	r5, r4, ip
 8000892:	ea41 5104 	orrgt.w	r1, r1, r4, lsl #20
 8000896:	bd70      	popgt	{r4, r5, r6, pc}
 8000898:	f441 1180 	orr.w	r1, r1, #1048576	@ 0x100000
 800089c:	f04f 0e00 	mov.w	lr, #0
 80008a0:	3c01      	subs	r4, #1
 80008a2:	e690      	b.n	80005c6 <__aeabi_dmul+0xde>
 80008a4:	ea45 0e06 	orr.w	lr, r5, r6
 80008a8:	e68d      	b.n	80005c6 <__aeabi_dmul+0xde>
 80008aa:	ea0c 5513 	and.w	r5, ip, r3, lsr #20
 80008ae:	ea94 0f0c 	teq	r4, ip
 80008b2:	bf08      	it	eq
 80008b4:	ea95 0f0c 	teqeq	r5, ip
 80008b8:	f43f af3b 	beq.w	8000732 <__aeabi_dmul+0x24a>
 80008bc:	ea94 0f0c 	teq	r4, ip
 80008c0:	d10a      	bne.n	80008d8 <__aeabi_ddiv+0x19c>
 80008c2:	ea50 3401 	orrs.w	r4, r0, r1, lsl #12
 80008c6:	f47f af34 	bne.w	8000732 <__aeabi_dmul+0x24a>
 80008ca:	ea95 0f0c 	teq	r5, ip
 80008ce:	f47f af25 	bne.w	800071c <__aeabi_dmul+0x234>
 80008d2:	4610      	mov	r0, r2
 80008d4:	4619      	mov	r1, r3
 80008d6:	e72c      	b.n	8000732 <__aeabi_dmul+0x24a>
 80008d8:	ea95 0f0c 	teq	r5, ip
 80008dc:	d106      	bne.n	80008ec <__aeabi_ddiv+0x1b0>
 80008de:	ea52 3503 	orrs.w	r5, r2, r3, lsl #12
 80008e2:	f43f aefd 	beq.w	80006e0 <__aeabi_dmul+0x1f8>
 80008e6:	4610      	mov	r0, r2
 80008e8:	4619      	mov	r1, r3
 80008ea:	e722      	b.n	8000732 <__aeabi_dmul+0x24a>
 80008ec:	ea50 0641 	orrs.w	r6, r0, r1, lsl #1
 80008f0:	bf18      	it	ne
 80008f2:	ea52 0643 	orrsne.w	r6, r2, r3, lsl #1
 80008f6:	f47f aec5 	bne.w	8000684 <__aeabi_dmul+0x19c>
 80008fa:	ea50 0441 	orrs.w	r4, r0, r1, lsl #1
 80008fe:	f47f af0d 	bne.w	800071c <__aeabi_dmul+0x234>
 8000902:	ea52 0543 	orrs.w	r5, r2, r3, lsl #1
 8000906:	f47f aeeb 	bne.w	80006e0 <__aeabi_dmul+0x1f8>
 800090a:	e712      	b.n	8000732 <__aeabi_dmul+0x24a>

0800090c <__aeabi_d2iz>:
 800090c:	ea4f 0241 	mov.w	r2, r1, lsl #1
 8000910:	f512 1200 	adds.w	r2, r2, #2097152	@ 0x200000
 8000914:	d215      	bcs.n	8000942 <__aeabi_d2iz+0x36>
 8000916:	d511      	bpl.n	800093c <__aeabi_d2iz+0x30>
 8000918:	f46f 7378 	mvn.w	r3, #992	@ 0x3e0
 800091c:	ebb3 5262 	subs.w	r2, r3, r2, asr #21
 8000920:	d912      	bls.n	8000948 <__aeabi_d2iz+0x3c>
 8000922:	ea4f 23c1 	mov.w	r3, r1, lsl #11
 8000926:	f043 4300 	orr.w	r3, r3, #2147483648	@ 0x80000000
 800092a:	ea43 5350 	orr.w	r3, r3, r0, lsr #21
 800092e:	f011 4f00 	tst.w	r1, #2147483648	@ 0x80000000
 8000932:	fa23 f002 	lsr.w	r0, r3, r2
 8000936:	bf18      	it	ne
 8000938:	4240      	negne	r0, r0
 800093a:	4770      	bx	lr
 800093c:	f04f 0000 	mov.w	r0, #0
 8000940:	4770      	bx	lr
 8000942:	ea50 3001 	orrs.w	r0, r0, r1, lsl #12
 8000946:	d105      	bne.n	8000954 <__aeabi_d2iz+0x48>
 8000948:	f011 4000 	ands.w	r0, r1, #2147483648	@ 0x80000000
 800094c:	bf08      	it	eq
 800094e:	f06f 4000 	mvneq.w	r0, #2147483648	@ 0x80000000
 8000952:	4770      	bx	lr
 8000954:	f04f 0000 	mov.w	r0, #0
 8000958:	4770      	bx	lr
 800095a:	bf00      	nop

0800095c <__aeabi_ldivmod>:
 800095c:	b97b      	cbnz	r3, 800097e <__aeabi_ldivmod+0x22>
 800095e:	b972      	cbnz	r2, 800097e <__aeabi_ldivmod+0x22>
 8000960:	2900      	cmp	r1, #0
 8000962:	bfbe      	ittt	lt
 8000964:	2000      	movlt	r0, #0
 8000966:	f04f 4100 	movlt.w	r1, #2147483648	@ 0x80000000
 800096a:	e006      	blt.n	800097a <__aeabi_ldivmod+0x1e>
 800096c:	bf08      	it	eq
 800096e:	2800      	cmpeq	r0, #0
 8000970:	bf1c      	itt	ne
 8000972:	f06f 4100 	mvnne.w	r1, #2147483648	@ 0x80000000
 8000976:	f04f 30ff 	movne.w	r0, #4294967295
 800097a:	f000 b99b 	b.w	8000cb4 <__aeabi_idiv0>
 800097e:	f1ad 0c08 	sub.w	ip, sp, #8
 8000982:	e96d ce04 	strd	ip, lr, [sp, #-16]!
 8000986:	2900      	cmp	r1, #0
 8000988:	db09      	blt.n	800099e <__aeabi_ldivmod+0x42>
 800098a:	2b00      	cmp	r3, #0
 800098c:	db1a      	blt.n	80009c4 <__aeabi_ldivmod+0x68>
 800098e:	f000 f835 	bl	80009fc <__udivmoddi4>
 8000992:	f8dd e004 	ldr.w	lr, [sp, #4]
 8000996:	e9dd 2302 	ldrd	r2, r3, [sp, #8]
 800099a:	b004      	add	sp, #16
 800099c:	4770      	bx	lr
 800099e:	4240      	negs	r0, r0
 80009a0:	eb61 0141 	sbc.w	r1, r1, r1, lsl #1
 80009a4:	2b00      	cmp	r3, #0
 80009a6:	db1b      	blt.n	80009e0 <__aeabi_ldivmod+0x84>
 80009a8:	f000 f828 	bl	80009fc <__udivmoddi4>
 80009ac:	f8dd e004 	ldr.w	lr, [sp, #4]
 80009b0:	e9dd 2302 	ldrd	r2, r3, [sp, #8]
 80009b4:	b004      	add	sp, #16
 80009b6:	4240      	negs	r0, r0
 80009b8:	eb61 0141 	sbc.w	r1, r1, r1, lsl #1
 80009bc:	4252      	negs	r2, r2
 80009be:	eb63 0343 	sbc.w	r3, r3, r3, lsl #1
 80009c2:	4770      	bx	lr
 80009c4:	4252      	negs	r2, r2
 80009c6:	eb63 0343 	sbc.w	r3, r3, r3, lsl #1
 80009ca:	f000 f817 	bl	80009fc <__udivmoddi4>
 80009ce:	f8dd e004 	ldr.w	lr, [sp, #4]
 80009d2:	e9dd 2302 	ldrd	r2, r3, [sp, #8]
 80009d6:	b004      	add	sp, #16
 80009d8:	4240      	negs	r0, r0
 80009da:	eb61 0141 	sbc.w	r1, r1, r1, lsl #1
 80009de:	4770      	bx	lr
 80009e0:	4252      	negs	r2, r2
 80009e2:	eb63 0343 	sbc.w	r3, r3, r3, lsl #1
 80009e6:	f000 f809 	bl	80009fc <__udivmoddi4>
 80009ea:	f8dd e004 	ldr.w	lr, [sp, #4]
 80009ee:	e9dd 2302 	ldrd	r2, r3, [sp, #8]
 80009f2:	b004      	add	sp, #16
 80009f4:	4252      	negs	r2, r2
 80009f6:	eb63 0343 	sbc.w	r3, r3, r3, lsl #1
 80009fa:	4770      	bx	lr

080009fc <__udivmoddi4>:
 80009fc:	e92d 47f0 	stmdb	sp!, {r4, r5, r6, r7, r8, r9, sl, lr}
 8000a00:	9d08      	ldr	r5, [sp, #32]
 8000a02:	460c      	mov	r4, r1
 8000a04:	2b00      	cmp	r3, #0
 8000a06:	d14e      	bne.n	8000aa6 <__udivmoddi4+0xaa>
 8000a08:	4694      	mov	ip, r2
 8000a0a:	458c      	cmp	ip, r1
 8000a0c:	4686      	mov	lr, r0
 8000a0e:	fab2 f282 	clz	r2, r2
 8000a12:	d962      	bls.n	8000ada <__udivmoddi4+0xde>
 8000a14:	b14a      	cbz	r2, 8000a2a <__udivmoddi4+0x2e>
 8000a16:	f1c2 0320 	rsb	r3, r2, #32
 8000a1a:	4091      	lsls	r1, r2
 8000a1c:	fa20 f303 	lsr.w	r3, r0, r3
 8000a20:	fa0c fc02 	lsl.w	ip, ip, r2
 8000a24:	4319      	orrs	r1, r3
 8000a26:	fa00 fe02 	lsl.w	lr, r0, r2
 8000a2a:	ea4f 471c 	mov.w	r7, ip, lsr #16
 8000a2e:	fbb1 f4f7 	udiv	r4, r1, r7
 8000a32:	fb07 1114 	mls	r1, r7, r4, r1
 8000a36:	fa1f f68c 	uxth.w	r6, ip
 8000a3a:	ea4f 431e 	mov.w	r3, lr, lsr #16
 8000a3e:	ea43 4301 	orr.w	r3, r3, r1, lsl #16
 8000a42:	fb04 f106 	mul.w	r1, r4, r6
 8000a46:	4299      	cmp	r1, r3
 8000a48:	d90a      	bls.n	8000a60 <__udivmoddi4+0x64>
 8000a4a:	eb1c 0303 	adds.w	r3, ip, r3
 8000a4e:	f104 30ff 	add.w	r0, r4, #4294967295
 8000a52:	f080 8110 	bcs.w	8000c76 <__udivmoddi4+0x27a>
 8000a56:	4299      	cmp	r1, r3
 8000a58:	f240 810d 	bls.w	8000c76 <__udivmoddi4+0x27a>
 8000a5c:	3c02      	subs	r4, #2
 8000a5e:	4463      	add	r3, ip
 8000a60:	1a59      	subs	r1, r3, r1
 8000a62:	fbb1 f0f7 	udiv	r0, r1, r7
 8000a66:	fb07 1110 	mls	r1, r7, r0, r1
 8000a6a:	fb00 f606 	mul.w	r6, r0, r6
 8000a6e:	fa1f f38e 	uxth.w	r3, lr
 8000a72:	ea43 4301 	orr.w	r3, r3, r1, lsl #16
 8000a76:	429e      	cmp	r6, r3
 8000a78:	d90a      	bls.n	8000a90 <__udivmoddi4+0x94>
 8000a7a:	eb1c 0303 	adds.w	r3, ip, r3
 8000a7e:	f100 31ff 	add.w	r1, r0, #4294967295
 8000a82:	f080 80fa 	bcs.w	8000c7a <__udivmoddi4+0x27e>
 8000a86:	429e      	cmp	r6, r3
 8000a88:	f240 80f7 	bls.w	8000c7a <__udivmoddi4+0x27e>
 8000a8c:	4463      	add	r3, ip
 8000a8e:	3802      	subs	r0, #2
 8000a90:	2100      	movs	r1, #0
 8000a92:	1b9b      	subs	r3, r3, r6
 8000a94:	ea40 4004 	orr.w	r0, r0, r4, lsl #16
 8000a98:	b11d      	cbz	r5, 8000aa2 <__udivmoddi4+0xa6>
 8000a9a:	40d3      	lsrs	r3, r2
 8000a9c:	2200      	movs	r2, #0
 8000a9e:	e9c5 3200 	strd	r3, r2, [r5]
 8000aa2:	e8bd 87f0 	ldmia.w	sp!, {r4, r5, r6, r7, r8, r9, sl, pc}
 8000aa6:	428b      	cmp	r3, r1
 8000aa8:	d905      	bls.n	8000ab6 <__udivmoddi4+0xba>
 8000aaa:	b10d      	cbz	r5, 8000ab0 <__udivmoddi4+0xb4>
 8000aac:	e9c5 0100 	strd	r0, r1, [r5]
 8000ab0:	2100      	movs	r1, #0
 8000ab2:	4608      	mov	r0, r1
 8000ab4:	e7f5      	b.n	8000aa2 <__udivmoddi4+0xa6>
 8000ab6:	fab3 f183 	clz	r1, r3
 8000aba:	2900      	cmp	r1, #0
 8000abc:	d146      	bne.n	8000b4c <__udivmoddi4+0x150>
 8000abe:	42a3      	cmp	r3, r4
 8000ac0:	d302      	bcc.n	8000ac8 <__udivmoddi4+0xcc>
 8000ac2:	4290      	cmp	r0, r2
 8000ac4:	f0c0 80ee 	bcc.w	8000ca4 <__udivmoddi4+0x2a8>
 8000ac8:	1a86      	subs	r6, r0, r2
 8000aca:	eb64 0303 	sbc.w	r3, r4, r3
 8000ace:	2001      	movs	r0, #1
 8000ad0:	2d00      	cmp	r5, #0
 8000ad2:	d0e6      	beq.n	8000aa2 <__udivmoddi4+0xa6>
 8000ad4:	e9c5 6300 	strd	r6, r3, [r5]
 8000ad8:	e7e3      	b.n	8000aa2 <__udivmoddi4+0xa6>
 8000ada:	2a00      	cmp	r2, #0
 8000adc:	f040 808f 	bne.w	8000bfe <__udivmoddi4+0x202>
 8000ae0:	eba1 040c 	sub.w	r4, r1, ip
 8000ae4:	2101      	movs	r1, #1
 8000ae6:	ea4f 481c 	mov.w	r8, ip, lsr #16
 8000aea:	fa1f f78c 	uxth.w	r7, ip
 8000aee:	fbb4 f6f8 	udiv	r6, r4, r8
 8000af2:	fb08 4416 	mls	r4, r8, r6, r4
 8000af6:	fb07 f006 	mul.w	r0, r7, r6
 8000afa:	ea4f 431e 	mov.w	r3, lr, lsr #16
 8000afe:	ea43 4304 	orr.w	r3, r3, r4, lsl #16
 8000b02:	4298      	cmp	r0, r3
 8000b04:	d908      	bls.n	8000b18 <__udivmoddi4+0x11c>
 8000b06:	eb1c 0303 	adds.w	r3, ip, r3
 8000b0a:	f106 34ff 	add.w	r4, r6, #4294967295
 8000b0e:	d202      	bcs.n	8000b16 <__udivmoddi4+0x11a>
 8000b10:	4298      	cmp	r0, r3
 8000b12:	f200 80cb 	bhi.w	8000cac <__udivmoddi4+0x2b0>
 8000b16:	4626      	mov	r6, r4
 8000b18:	1a1c      	subs	r4, r3, r0
 8000b1a:	fbb4 f0f8 	udiv	r0, r4, r8
 8000b1e:	fb08 4410 	mls	r4, r8, r0, r4
 8000b22:	fb00 f707 	mul.w	r7, r0, r7
 8000b26:	fa1f f38e 	uxth.w	r3, lr
 8000b2a:	ea43 4304 	orr.w	r3, r3, r4, lsl #16
 8000b2e:	429f      	cmp	r7, r3
 8000b30:	d908      	bls.n	8000b44 <__udivmoddi4+0x148>
 8000b32:	eb1c 0303 	adds.w	r3, ip, r3
 8000b36:	f100 34ff 	add.w	r4, r0, #4294967295
 8000b3a:	d202      	bcs.n	8000b42 <__udivmoddi4+0x146>
 8000b3c:	429f      	cmp	r7, r3
 8000b3e:	f200 80ae 	bhi.w	8000c9e <__udivmoddi4+0x2a2>
 8000b42:	4620      	mov	r0, r4
 8000b44:	1bdb      	subs	r3, r3, r7
 8000b46:	ea40 4006 	orr.w	r0, r0, r6, lsl #16
 8000b4a:	e7a5      	b.n	8000a98 <__udivmoddi4+0x9c>
 8000b4c:	f1c1 0720 	rsb	r7, r1, #32
 8000b50:	408b      	lsls	r3, r1
 8000b52:	fa22 fc07 	lsr.w	ip, r2, r7
 8000b56:	ea4c 0c03 	orr.w	ip, ip, r3
 8000b5a:	fa24 f607 	lsr.w	r6, r4, r7
 8000b5e:	ea4f 491c 	mov.w	r9, ip, lsr #16
 8000b62:	fbb6 f8f9 	udiv	r8, r6, r9
 8000b66:	fa1f fe8c 	uxth.w	lr, ip
 8000b6a:	fb09 6618 	mls	r6, r9, r8, r6
 8000b6e:	fa20 f307 	lsr.w	r3, r0, r7
 8000b72:	408c      	lsls	r4, r1
 8000b74:	fa00 fa01 	lsl.w	sl, r0, r1
 8000b78:	fb08 f00e 	mul.w	r0, r8, lr
 8000b7c:	431c      	orrs	r4, r3
 8000b7e:	0c23      	lsrs	r3, r4, #16
 8000b80:	ea43 4306 	orr.w	r3, r3, r6, lsl #16
 8000b84:	4298      	cmp	r0, r3
 8000b86:	fa02 f201 	lsl.w	r2, r2, r1
 8000b8a:	d90a      	bls.n	8000ba2 <__udivmoddi4+0x1a6>
 8000b8c:	eb1c 0303 	adds.w	r3, ip, r3
 8000b90:	f108 36ff 	add.w	r6, r8, #4294967295
 8000b94:	f080 8081 	bcs.w	8000c9a <__udivmoddi4+0x29e>
 8000b98:	4298      	cmp	r0, r3
 8000b9a:	d97e      	bls.n	8000c9a <__udivmoddi4+0x29e>
 8000b9c:	f1a8 0802 	sub.w	r8, r8, #2
 8000ba0:	4463      	add	r3, ip
 8000ba2:	1a1e      	subs	r6, r3, r0
 8000ba4:	fbb6 f3f9 	udiv	r3, r6, r9
 8000ba8:	fb09 6613 	mls	r6, r9, r3, r6
 8000bac:	fb03 fe0e 	mul.w	lr, r3, lr
 8000bb0:	b2a4      	uxth	r4, r4
 8000bb2:	ea44 4406 	orr.w	r4, r4, r6, lsl #16
 8000bb6:	45a6      	cmp	lr, r4
 8000bb8:	d908      	bls.n	8000bcc <__udivmoddi4+0x1d0>
 8000bba:	eb1c 0404 	adds.w	r4, ip, r4
 8000bbe:	f103 30ff 	add.w	r0, r3, #4294967295
 8000bc2:	d266      	bcs.n	8000c92 <__udivmoddi4+0x296>
 8000bc4:	45a6      	cmp	lr, r4
 8000bc6:	d964      	bls.n	8000c92 <__udivmoddi4+0x296>
 8000bc8:	3b02      	subs	r3, #2
 8000bca:	4464      	add	r4, ip
 8000bcc:	ea43 4008 	orr.w	r0, r3, r8, lsl #16
 8000bd0:	fba0 8302 	umull	r8, r3, r0, r2
 8000bd4:	eba4 040e 	sub.w	r4, r4, lr
 8000bd8:	429c      	cmp	r4, r3
 8000bda:	46c6      	mov	lr, r8
 8000bdc:	461e      	mov	r6, r3
 8000bde:	d350      	bcc.n	8000c82 <__udivmoddi4+0x286>
 8000be0:	d04d      	beq.n	8000c7e <__udivmoddi4+0x282>
 8000be2:	b155      	cbz	r5, 8000bfa <__udivmoddi4+0x1fe>
 8000be4:	ebba 030e 	subs.w	r3, sl, lr
 8000be8:	eb64 0406 	sbc.w	r4, r4, r6
 8000bec:	fa04 f707 	lsl.w	r7, r4, r7
 8000bf0:	40cb      	lsrs	r3, r1
 8000bf2:	431f      	orrs	r7, r3
 8000bf4:	40cc      	lsrs	r4, r1
 8000bf6:	e9c5 7400 	strd	r7, r4, [r5]
 8000bfa:	2100      	movs	r1, #0
 8000bfc:	e751      	b.n	8000aa2 <__udivmoddi4+0xa6>
 8000bfe:	fa0c fc02 	lsl.w	ip, ip, r2
 8000c02:	f1c2 0320 	rsb	r3, r2, #32
 8000c06:	40d9      	lsrs	r1, r3
 8000c08:	ea4f 481c 	mov.w	r8, ip, lsr #16
 8000c0c:	fa20 f303 	lsr.w	r3, r0, r3
 8000c10:	fa00 fe02 	lsl.w	lr, r0, r2
 8000c14:	fbb1 f0f8 	udiv	r0, r1, r8
 8000c18:	fb08 1110 	mls	r1, r8, r0, r1
 8000c1c:	4094      	lsls	r4, r2
 8000c1e:	431c      	orrs	r4, r3
 8000c20:	fa1f f78c 	uxth.w	r7, ip
 8000c24:	0c23      	lsrs	r3, r4, #16
 8000c26:	ea43 4301 	orr.w	r3, r3, r1, lsl #16
 8000c2a:	fb00 f107 	mul.w	r1, r0, r7
 8000c2e:	4299      	cmp	r1, r3
 8000c30:	d908      	bls.n	8000c44 <__udivmoddi4+0x248>
 8000c32:	eb1c 0303 	adds.w	r3, ip, r3
 8000c36:	f100 36ff 	add.w	r6, r0, #4294967295
 8000c3a:	d22c      	bcs.n	8000c96 <__udivmoddi4+0x29a>
 8000c3c:	4299      	cmp	r1, r3
 8000c3e:	d92a      	bls.n	8000c96 <__udivmoddi4+0x29a>
 8000c40:	3802      	subs	r0, #2
 8000c42:	4463      	add	r3, ip
 8000c44:	1a5b      	subs	r3, r3, r1
 8000c46:	fbb3 f1f8 	udiv	r1, r3, r8
 8000c4a:	fb08 3311 	mls	r3, r8, r1, r3
 8000c4e:	b2a4      	uxth	r4, r4
 8000c50:	ea44 4403 	orr.w	r4, r4, r3, lsl #16
 8000c54:	fb01 f307 	mul.w	r3, r1, r7
 8000c58:	42a3      	cmp	r3, r4
 8000c5a:	d908      	bls.n	8000c6e <__udivmoddi4+0x272>
 8000c5c:	eb1c 0404 	adds.w	r4, ip, r4
 8000c60:	f101 36ff 	add.w	r6, r1, #4294967295
 8000c64:	d213      	bcs.n	8000c8e <__udivmoddi4+0x292>
 8000c66:	42a3      	cmp	r3, r4
 8000c68:	d911      	bls.n	8000c8e <__udivmoddi4+0x292>
 8000c6a:	3902      	subs	r1, #2
 8000c6c:	4464      	add	r4, ip
 8000c6e:	1ae4      	subs	r4, r4, r3
 8000c70:	ea41 4100 	orr.w	r1, r1, r0, lsl #16
 8000c74:	e73b      	b.n	8000aee <__udivmoddi4+0xf2>
 8000c76:	4604      	mov	r4, r0
 8000c78:	e6f2      	b.n	8000a60 <__udivmoddi4+0x64>
 8000c7a:	4608      	mov	r0, r1
 8000c7c:	e708      	b.n	8000a90 <__udivmoddi4+0x94>
 8000c7e:	45c2      	cmp	sl, r8
 8000c80:	d2af      	bcs.n	8000be2 <__udivmoddi4+0x1e6>
 8000c82:	ebb8 0e02 	subs.w	lr, r8, r2
 8000c86:	eb63 060c 	sbc.w	r6, r3, ip
 8000c8a:	3801      	subs	r0, #1
 8000c8c:	e7a9      	b.n	8000be2 <__udivmoddi4+0x1e6>
 8000c8e:	4631      	mov	r1, r6
 8000c90:	e7ed      	b.n	8000c6e <__udivmoddi4+0x272>
 8000c92:	4603      	mov	r3, r0
 8000c94:	e79a      	b.n	8000bcc <__udivmoddi4+0x1d0>
 8000c96:	4630      	mov	r0, r6
 8000c98:	e7d4      	b.n	8000c44 <__udivmoddi4+0x248>
 8000c9a:	46b0      	mov	r8, r6
 8000c9c:	e781      	b.n	8000ba2 <__udivmoddi4+0x1a6>
 8000c9e:	4463      	add	r3, ip
 8000ca0:	3802      	subs	r0, #2
 8000ca2:	e74f      	b.n	8000b44 <__udivmoddi4+0x148>
 8000ca4:	4606      	mov	r6, r0
 8000ca6:	4623      	mov	r3, r4
 8000ca8:	4608      	mov	r0, r1
 8000caa:	e711      	b.n	8000ad0 <__udivmoddi4+0xd4>
 8000cac:	3e02      	subs	r6, #2
 8000cae:	4463      	add	r3, ip
 8000cb0:	e732      	b.n	8000b18 <__udivmoddi4+0x11c>
 8000cb2:	bf00      	nop

08000cb4 <__aeabi_idiv0>:
 8000cb4:	4770      	bx	lr
 8000cb6:	bf00      	nop

08000cb8 <NMI_Handler>:
 8000cb8:	e7fe      	b.n	8000cb8 <NMI_Handler>

08000cba <HardFault_Handler>:
 8000cba:	e7fe      	b.n	8000cba <HardFault_Handler>

08000cbc <MemManage_Handler>:
 8000cbc:	e7fe      	b.n	8000cbc <MemManage_Handler>

08000cbe <BusFault_Handler>:
 8000cbe:	e7fe      	b.n	8000cbe <BusFault_Handler>

08000cc0 <UsageFault_Handler>:
 8000cc0:	e7fe      	b.n	8000cc0 <UsageFault_Handler>

08000cc2 <SVC_Handler>:
 8000cc2:	4770      	bx	lr

08000cc4 <DebugMon_Handler>:
 8000cc4:	4770      	bx	lr

08000cc6 <PendSV_Handler>:
 8000cc6:	4770      	bx	lr

08000cc8 <SysTick_Handler>:
 8000cc8:	4770      	bx	lr

08000cca <SystemInit>:
 8000cca:	4770      	bx	lr

08000ccc <_ZNK13AdcSingleRead4ReadEv>:
 8000ccc:	6883      	ldr	r3, [r0, #8]
 8000cce:	490b      	ldr	r1, [pc, #44]	@ (8000cfc <_ZNK13AdcSingleRead4ReadEv+0x30>)
 8000cd0:	681a      	ldr	r2, [r3, #0]
 8000cd2:	f022 0202 	bic.w	r2, r2, #2
 8000cd6:	601a      	str	r2, [r3, #0]
 8000cd8:	689a      	ldr	r2, [r3, #8]
 8000cda:	f042 0201 	orr.w	r2, r2, #1
 8000cde:	609a      	str	r2, [r3, #8]
 8000ce0:	689a      	ldr	r2, [r3, #8]
 8000ce2:	f442 0280 	orr.w	r2, r2, #4194304	@ 0x400000
 8000ce6:	609a      	str	r2, [r3, #8]
 8000ce8:	680a      	ldr	r2, [r1, #0]
 8000cea:	0792      	lsls	r2, r2, #30
 8000cec:	d5fc      	bpl.n	8000ce8 <_ZNK13AdcSingleRead4ReadEv+0x1c>
 8000cee:	6cd8      	ldr	r0, [r3, #76]	@ 0x4c
 8000cf0:	681a      	ldr	r2, [r3, #0]
 8000cf2:	b280      	uxth	r0, r0
 8000cf4:	f022 0202 	bic.w	r2, r2, #2
 8000cf8:	601a      	str	r2, [r3, #0]
 8000cfa:	4770      	bx	lr
 8000cfc:	40012400 	.word	0x40012400

08000d00 <_ZN13AdcSingleRead14DelayUsecRoughEm>:
 8000d00:	b900      	cbnz	r0, 8000d04 <_ZN13AdcSingleRead14DelayUsecRoughEm+0x4>
 8000d02:	4770      	bx	lr
 8000d04:	bf00      	nop
 8000d06:	bf00      	nop
 8000d08:	3801      	subs	r0, #1
 8000d0a:	e7f9      	b.n	8000d00 <_ZN13AdcSingleRead14DelayUsecRoughEm>

08000d0c <_ZN13AdcSingleRead4InitENS_10AdcChannelE>:
 8000d0c:	b538      	push	{r3, r4, r5, lr}
 8000d0e:	4604      	mov	r4, r0
 8000d10:	6800      	ldr	r0, [r0, #0]
 8000d12:	460d      	mov	r5, r1
 8000d14:	f000 fbd6 	bl	80014c4 <_ZN16GpioConfigurator15GpioClockEnableEP12GPIO_TypeDef>
 8000d18:	7921      	ldrb	r1, [r4, #4]
 8000d1a:	6820      	ldr	r0, [r4, #0]
 8000d1c:	f000 fc5b 	bl	80015d6 <_ZN16GpioConfigurator17SetGpioAnalogModeEP12GPIO_TypeDefh>
 8000d20:	4a25      	ldr	r2, [pc, #148]	@ (8000db8 <_ZN13AdcSingleRead4InitENS_10AdcChannelE+0xac>)
 8000d22:	4926      	ldr	r1, [pc, #152]	@ (8000dbc <_ZN13AdcSingleRead4InitENS_10AdcChannelE+0xb0>)
 8000d24:	6853      	ldr	r3, [r2, #4]
 8000d26:	f423 4340 	bic.w	r3, r3, #49152	@ 0xc000
 8000d2a:	6053      	str	r3, [r2, #4]
 8000d2c:	6823      	ldr	r3, [r4, #0]
 8000d2e:	6990      	ldr	r0, [r2, #24]
 8000d30:	428b      	cmp	r3, r1
 8000d32:	d027      	beq.n	8000d84 <_ZN13AdcSingleRead4InitENS_10AdcChannelE+0x78>
 8000d34:	f501 6180 	add.w	r1, r1, #1024	@ 0x400
 8000d38:	1a59      	subs	r1, r3, r1
 8000d3a:	424b      	negs	r3, r1
 8000d3c:	414b      	adcs	r3, r1
 8000d3e:	f240 2101 	movw	r1, #513	@ 0x201
 8000d42:	00db      	lsls	r3, r3, #3
 8000d44:	430b      	orrs	r3, r1
 8000d46:	4303      	orrs	r3, r0
 8000d48:	6193      	str	r3, [r2, #24]
 8000d4a:	68a3      	ldr	r3, [r4, #8]
 8000d4c:	4a1c      	ldr	r2, [pc, #112]	@ (8000dc0 <_ZN13AdcSingleRead4InitENS_10AdcChannelE+0xb4>)
 8000d4e:	f44f 707a 	mov.w	r0, #1000	@ 0x3e8
 8000d52:	609a      	str	r2, [r3, #8]
 8000d54:	f7ff ffd4 	bl	8000d00 <_ZN13AdcSingleRead14DelayUsecRoughEm>
 8000d58:	68a3      	ldr	r3, [r4, #8]
 8000d5a:	689a      	ldr	r2, [r3, #8]
 8000d5c:	f042 0208 	orr.w	r2, r2, #8
 8000d60:	609a      	str	r2, [r3, #8]
 8000d62:	689a      	ldr	r2, [r3, #8]
 8000d64:	f012 0208 	ands.w	r2, r2, #8
 8000d68:	d1fb      	bne.n	8000d62 <_ZN13AdcSingleRead4InitENS_10AdcChannelE+0x56>
 8000d6a:	2180      	movs	r1, #128	@ 0x80
 8000d6c:	6119      	str	r1, [r3, #16]
 8000d6e:	62da      	str	r2, [r3, #44]	@ 0x2c
 8000d70:	631a      	str	r2, [r3, #48]	@ 0x30
 8000d72:	2d09      	cmp	r5, #9
 8000d74:	d80c      	bhi.n	8000d90 <_ZN13AdcSingleRead4InitENS_10AdcChannelE+0x84>
 8000d76:	e8df f005 	tbb	[pc, r5]
 8000d7a:	0c09      	.short	0x0c09
 8000d7c:	1412100e 	.word	0x1412100e
 8000d80:	1c1a1816 	.word	0x1c1a1816
 8000d84:	f240 2105 	movw	r1, #517	@ 0x205
 8000d88:	2300      	movs	r3, #0
 8000d8a:	e7db      	b.n	8000d44 <_ZN13AdcSingleRead4InitENS_10AdcChannelE+0x38>
 8000d8c:	2200      	movs	r2, #0
 8000d8e:	635a      	str	r2, [r3, #52]	@ 0x34
 8000d90:	bd38      	pop	{r3, r4, r5, pc}
 8000d92:	2201      	movs	r2, #1
 8000d94:	e7fb      	b.n	8000d8e <_ZN13AdcSingleRead4InitENS_10AdcChannelE+0x82>
 8000d96:	2202      	movs	r2, #2
 8000d98:	e7f9      	b.n	8000d8e <_ZN13AdcSingleRead4InitENS_10AdcChannelE+0x82>
 8000d9a:	2203      	movs	r2, #3
 8000d9c:	e7f7      	b.n	8000d8e <_ZN13AdcSingleRead4InitENS_10AdcChannelE+0x82>
 8000d9e:	2204      	movs	r2, #4
 8000da0:	e7f5      	b.n	8000d8e <_ZN13AdcSingleRead4InitENS_10AdcChannelE+0x82>
 8000da2:	2205      	movs	r2, #5
 8000da4:	e7f3      	b.n	8000d8e <_ZN13AdcSingleRead4InitENS_10AdcChannelE+0x82>
 8000da6:	2206      	movs	r2, #6
 8000da8:	e7f1      	b.n	8000d8e <_ZN13AdcSingleRead4InitENS_10AdcChannelE+0x82>
 8000daa:	2207      	movs	r2, #7
 8000dac:	e7ef      	b.n	8000d8e <_ZN13AdcSingleRead4InitENS_10AdcChannelE+0x82>
 8000dae:	2208      	movs	r2, #8
 8000db0:	e7ed      	b.n	8000d8e <_ZN13AdcSingleRead4InitENS_10AdcChannelE+0x82>
 8000db2:	2209      	movs	r2, #9
 8000db4:	e7eb      	b.n	8000d8e <_ZN13AdcSingleRead4InitENS_10AdcChannelE+0x82>
 8000db6:	bf00      	nop
 8000db8:	40021000 	.word	0x40021000
 8000dbc:	40010800 	.word	0x40010800
 8000dc0:	000e0001 	.word	0x000e0001

08000dc4 <_ZN13AdcSingleReadC1ENS_9AdcNumberENS_10AdcChannelE>:
 8000dc4:	2300      	movs	r3, #0
 8000dc6:	b510      	push	{r4, lr}
 8000dc8:	4604      	mov	r4, r0
 8000dca:	6003      	str	r3, [r0, #0]
 8000dcc:	20ff      	movs	r0, #255	@ 0xff
 8000dce:	7120      	strb	r0, [r4, #4]
 8000dd0:	b121      	cbz	r1, 8000ddc <_ZN13AdcSingleReadC1ENS_9AdcNumberENS_10AdcChannelE+0x18>
 8000dd2:	2901      	cmp	r1, #1
 8000dd4:	d00d      	beq.n	8000df2 <_ZN13AdcSingleReadC1ENS_9AdcNumberENS_10AdcChannelE+0x2e>
 8000dd6:	60a3      	str	r3, [r4, #8]
 8000dd8:	4620      	mov	r0, r4
 8000dda:	bd10      	pop	{r4, pc}
 8000ddc:	4b0d      	ldr	r3, [pc, #52]	@ (8000e14 <_ZN13AdcSingleReadC1ENS_9AdcNumberENS_10AdcChannelE+0x50>)
 8000dde:	60a3      	str	r3, [r4, #8]
 8000de0:	2a09      	cmp	r2, #9
 8000de2:	d8f9      	bhi.n	8000dd8 <_ZN13AdcSingleReadC1ENS_9AdcNumberENS_10AdcChannelE+0x14>
 8000de4:	e8df f002 	tbb	[pc, r2]
 8000de8:	13131313 	.word	0x13131313
 8000dec:	13131313 	.word	0x13131313
 8000df0:	1007      	.short	0x1007
 8000df2:	4b09      	ldr	r3, [pc, #36]	@ (8000e18 <_ZN13AdcSingleReadC1ENS_9AdcNumberENS_10AdcChannelE+0x54>)
 8000df4:	e7f3      	b.n	8000dde <_ZN13AdcSingleReadC1ENS_9AdcNumberENS_10AdcChannelE+0x1a>
 8000df6:	2300      	movs	r3, #0
 8000df8:	4908      	ldr	r1, [pc, #32]	@ (8000e1c <_ZN13AdcSingleReadC1ENS_9AdcNumberENS_10AdcChannelE+0x58>)
 8000dfa:	6021      	str	r1, [r4, #0]
 8000dfc:	4620      	mov	r0, r4
 8000dfe:	4611      	mov	r1, r2
 8000e00:	7123      	strb	r3, [r4, #4]
 8000e02:	f7ff ff83 	bl	8000d0c <_ZN13AdcSingleRead4InitENS_10AdcChannelE>
 8000e06:	e7e7      	b.n	8000dd8 <_ZN13AdcSingleReadC1ENS_9AdcNumberENS_10AdcChannelE+0x14>
 8000e08:	2301      	movs	r3, #1
 8000e0a:	4904      	ldr	r1, [pc, #16]	@ (8000e1c <_ZN13AdcSingleReadC1ENS_9AdcNumberENS_10AdcChannelE+0x58>)
 8000e0c:	e7f5      	b.n	8000dfa <_ZN13AdcSingleReadC1ENS_9AdcNumberENS_10AdcChannelE+0x36>
 8000e0e:	4613      	mov	r3, r2
 8000e10:	4903      	ldr	r1, [pc, #12]	@ (8000e20 <_ZN13AdcSingleReadC1ENS_9AdcNumberENS_10AdcChannelE+0x5c>)
 8000e12:	e7f2      	b.n	8000dfa <_ZN13AdcSingleReadC1ENS_9AdcNumberENS_10AdcChannelE+0x36>
 8000e14:	40012400 	.word	0x40012400
 8000e18:	40012800 	.word	0x40012800
 8000e1c:	40010c00 	.word	0x40010c00
 8000e20:	40010800 	.word	0x40010800

08000e24 <_ZN12BME280SensorC1Eh>:
 8000e24:	2300      	movs	r3, #0
 8000e26:	b510      	push	{r4, lr}
 8000e28:	4604      	mov	r4, r0
 8000e2a:	7303      	strb	r3, [r0, #12]
 8000e2c:	81c3      	strh	r3, [r0, #14]
 8000e2e:	8203      	strh	r3, [r0, #16]
 8000e30:	8243      	strh	r3, [r0, #18]
 8000e32:	8283      	strh	r3, [r0, #20]
 8000e34:	82c3      	strh	r3, [r0, #22]
 8000e36:	8303      	strh	r3, [r0, #24]
 8000e38:	8343      	strh	r3, [r0, #26]
 8000e3a:	8383      	strh	r3, [r0, #28]
 8000e3c:	83c3      	strh	r3, [r0, #30]
 8000e3e:	8403      	strh	r3, [r0, #32]
 8000e40:	8443      	strh	r3, [r0, #34]	@ 0x22
 8000e42:	8483      	strh	r3, [r0, #36]	@ 0x24
 8000e44:	f880 3026 	strb.w	r3, [r0, #38]	@ 0x26
 8000e48:	8503      	strh	r3, [r0, #40]	@ 0x28
 8000e4a:	f880 302a 	strb.w	r3, [r0, #42]	@ 0x2a
 8000e4e:	8583      	strh	r3, [r0, #44]	@ 0x2c
 8000e50:	85c3      	strh	r3, [r0, #46]	@ 0x2e
 8000e52:	f880 3030 	strb.w	r3, [r0, #48]	@ 0x30
 8000e56:	f880 1038 	strb.w	r1, [r0, #56]	@ 0x38
 8000e5a:	f000 fbd7 	bl	800160c <_ZN3i2c11I2c400KHzSw4InitEv>
 8000e5e:	4620      	mov	r0, r4
 8000e60:	bd10      	pop	{r4, pc}

08000e62 <_ZNK12BME280Sensor14GetTemperatureEv>:
 8000e62:	f9b0 0000 	ldrsh.w	r0, [r0]
 8000e66:	4770      	bx	lr

08000e68 <_ZNK12BME280Sensor11GetPressureEv>:
 8000e68:	6840      	ldr	r0, [r0, #4]
 8000e6a:	4770      	bx	lr

08000e6c <_ZNK12BME280Sensor11GetHumidityEv>:
 8000e6c:	6880      	ldr	r0, [r0, #8]
 8000e6e:	4770      	bx	lr

08000e70 <_ZN12BME280Sensor30GetTemperatureWithCompensationEl>:
 8000e70:	89c2      	ldrh	r2, [r0, #14]
 8000e72:	ebc2 1321 	rsb	r3, r2, r1, asr #4
 8000e76:	435b      	muls	r3, r3
 8000e78:	0052      	lsls	r2, r2, #1
 8000e7a:	ebc2 02e1 	rsb	r2, r2, r1, asr #3
 8000e7e:	f9b0 1010 	ldrsh.w	r1, [r0, #16]
 8000e82:	131b      	asrs	r3, r3, #12
 8000e84:	434a      	muls	r2, r1
 8000e86:	f9b0 1012 	ldrsh.w	r1, [r0, #18]
 8000e8a:	434b      	muls	r3, r1
 8000e8c:	139b      	asrs	r3, r3, #14
 8000e8e:	eb03 23e2 	add.w	r3, r3, r2, asr #11
 8000e92:	6343      	str	r3, [r0, #52]	@ 0x34
 8000e94:	eb03 0383 	add.w	r3, r3, r3, lsl #2
 8000e98:	f103 0080 	add.w	r0, r3, #128	@ 0x80
 8000e9c:	1200      	asrs	r0, r0, #8
 8000e9e:	4770      	bx	lr

08000ea0 <_ZN12BME280Sensor28GetPressureWithCompensationsEl>:
 8000ea0:	e92d 41f0 	stmdb	sp!, {r4, r5, r6, r7, r8, lr}
 8000ea4:	4605      	mov	r5, r0
 8000ea6:	6b46      	ldr	r6, [r0, #52]	@ 0x34
 8000ea8:	ea4f 7ce6 	mov.w	ip, r6, asr #31
 8000eac:	f5b6 36fa 	subs.w	r6, r6, #128000	@ 0x1f400
 8000eb0:	f14c 3cff 	adc.w	ip, ip, #4294967295
 8000eb4:	fba6 e706 	umull	lr, r7, r6, r6
 8000eb8:	fb06 f30c 	mul.w	r3, r6, ip
 8000ebc:	eb07 0743 	add.w	r7, r7, r3, lsl #1
 8000ec0:	f9b0 3016 	ldrsh.w	r3, [r0, #22]
 8000ec4:	fb03 f20c 	mul.w	r2, r3, ip
 8000ec8:	17d8      	asrs	r0, r3, #31
 8000eca:	fb06 2200 	mla	r2, r6, r0, r2
 8000ece:	fba3 3006 	umull	r3, r0, r3, r6
 8000ed2:	4402      	add	r2, r0
 8000ed4:	0312      	lsls	r2, r2, #12
 8000ed6:	0318      	lsls	r0, r3, #12
 8000ed8:	ea42 5213 	orr.w	r2, r2, r3, lsr #20
 8000edc:	f9b5 3018 	ldrsh.w	r3, [r5, #24]
 8000ee0:	fb03 f407 	mul.w	r4, r3, r7
 8000ee4:	ea4f 78e3 	mov.w	r8, r3, asr #31
 8000ee8:	fb0e 4408 	mla	r4, lr, r8, r4
 8000eec:	fba3 380e 	umull	r3, r8, r3, lr
 8000ef0:	4444      	add	r4, r8
 8000ef2:	0a1b      	lsrs	r3, r3, #8
 8000ef4:	f8b5 8014 	ldrh.w	r8, [r5, #20]
 8000ef8:	ea43 6304 	orr.w	r3, r3, r4, lsl #24
 8000efc:	181b      	adds	r3, r3, r0
 8000efe:	eb42 2224 	adc.w	r2, r2, r4, asr #8
 8000f02:	fba3 3408 	umull	r3, r4, r3, r8
 8000f06:	f502 4200 	add.w	r2, r2, #32768	@ 0x8000
 8000f0a:	fb08 4402 	mla	r4, r8, r2, r4
 8000f0e:	17e3      	asrs	r3, r4, #31
 8000f10:	1062      	asrs	r2, r4, #1
 8000f12:	ea53 0464 	orrs.w	r4, r3, r4, asr #1
 8000f16:	f04f 0000 	mov.w	r0, #0
 8000f1a:	d066      	beq.n	8000fea <_ZN12BME280Sensor28GetPressureWithCompensationsEl+0x14a>
 8000f1c:	f9b5 401e 	ldrsh.w	r4, [r5, #30]
 8000f20:	f5c1 1180 	rsb	r1, r1, #1048576	@ 0x100000
 8000f24:	4367      	muls	r7, r4
 8000f26:	ea4f 78e4 	mov.w	r8, r4, asr #31
 8000f2a:	fb0e 7708 	mla	r7, lr, r8, r7
 8000f2e:	fba4 e40e 	umull	lr, r4, r4, lr
 8000f32:	4427      	add	r7, r4
 8000f34:	f9b5 401c 	ldrsh.w	r4, [r5, #28]
 8000f38:	fb04 fc0c 	mul.w	ip, r4, ip
 8000f3c:	ea4f 78e4 	mov.w	r8, r4, asr #31
 8000f40:	fb06 cc08 	mla	ip, r6, r8, ip
 8000f44:	fba4 4606 	umull	r4, r6, r4, r6
 8000f48:	4466      	add	r6, ip
 8000f4a:	0476      	lsls	r6, r6, #17
 8000f4c:	ea46 36d4 	orr.w	r6, r6, r4, lsr #15
 8000f50:	0464      	lsls	r4, r4, #17
 8000f52:	eb14 040e 	adds.w	r4, r4, lr
 8000f56:	eb47 0706 	adc.w	r7, r7, r6
 8000f5a:	f001 4600 	and.w	r6, r1, #2147483648	@ 0x80000000
 8000f5e:	ea46 0651 	orr.w	r6, r6, r1, lsr #1
 8000f62:	1904      	adds	r4, r0, r4
 8000f64:	07c9      	lsls	r1, r1, #31
 8000f66:	1b08      	subs	r0, r1, r4
 8000f68:	f640 4135 	movw	r1, #3125	@ 0xc35
 8000f6c:	f9b5 c01a 	ldrsh.w	ip, [r5, #26]
 8000f70:	fba0 0401 	umull	r0, r4, r0, r1
 8000f74:	eb07 07cc 	add.w	r7, r7, ip, lsl #3
 8000f78:	eb66 0607 	sbc.w	r6, r6, r7
 8000f7c:	fb01 4106 	mla	r1, r1, r6, r4
 8000f80:	f7ff fcec 	bl	800095c <__aeabi_ldivmod>
 8000f84:	4607      	mov	r7, r0
 8000f86:	4608      	mov	r0, r1
 8000f88:	f9b5 3024 	ldrsh.w	r3, [r5, #36]	@ 0x24
 8000f8c:	134c      	asrs	r4, r1, #13
 8000f8e:	0b7a      	lsrs	r2, r7, #13
 8000f90:	ea42 42c1 	orr.w	r2, r2, r1, lsl #19
 8000f94:	fb03 f104 	mul.w	r1, r3, r4
 8000f98:	ea4f 7ce3 	mov.w	ip, r3, asr #31
 8000f9c:	fb02 110c 	mla	r1, r2, ip, r1
 8000fa0:	fba3 3c02 	umull	r3, ip, r3, r2
 8000fa4:	435c      	muls	r4, r3
 8000fa6:	4461      	add	r1, ip
 8000fa8:	fb02 4401 	mla	r4, r2, r1, r4
 8000fac:	fba3 3202 	umull	r3, r2, r3, r2
 8000fb0:	4422      	add	r2, r4
 8000fb2:	0e5b      	lsrs	r3, r3, #25
 8000fb4:	ea43 13c2 	orr.w	r3, r3, r2, lsl #7
 8000fb8:	19db      	adds	r3, r3, r7
 8000fba:	eb40 6162 	adc.w	r1, r0, r2, asr #25
 8000fbe:	f9b5 2022 	ldrsh.w	r2, [r5, #34]	@ 0x22
 8000fc2:	4350      	muls	r0, r2
 8000fc4:	17d4      	asrs	r4, r2, #31
 8000fc6:	fb04 0007 	mla	r0, r4, r7, r0
 8000fca:	fba2 2607 	umull	r2, r6, r2, r7
 8000fce:	4430      	add	r0, r6
 8000fd0:	0cd2      	lsrs	r2, r2, #19
 8000fd2:	ea42 3240 	orr.w	r2, r2, r0, lsl #13
 8000fd6:	189b      	adds	r3, r3, r2
 8000fd8:	eb41 42e0 	adc.w	r2, r1, r0, asr #19
 8000fdc:	0a1b      	lsrs	r3, r3, #8
 8000fde:	ea43 6302 	orr.w	r3, r3, r2, lsl #24
 8000fe2:	f9b5 2020 	ldrsh.w	r2, [r5, #32]
 8000fe6:	eb03 1002 	add.w	r0, r3, r2, lsl #4
 8000fea:	e8bd 81f0 	ldmia.w	sp!, {r4, r5, r6, r7, r8, pc}

08000fee <_ZN12BME280Sensor27GetHumidityWithCompensationEl>:
 8000fee:	f9b0 302c 	ldrsh.w	r3, [r0, #44]	@ 0x2c
 8000ff2:	b510      	push	{r4, lr}
 8000ff4:	6b44      	ldr	r4, [r0, #52]	@ 0x34
 8000ff6:	f9b0 202e 	ldrsh.w	r2, [r0, #46]	@ 0x2e
 8000ffa:	051b      	lsls	r3, r3, #20
 8000ffc:	f5a4 3496 	sub.w	r4, r4, #76800	@ 0x12c00
 8001000:	ebc3 3381 	rsb	r3, r3, r1, lsl #14
 8001004:	fb04 3312 	mls	r3, r4, r2, r3
 8001008:	f503 4380 	add.w	r3, r3, #16384	@ 0x4000
 800100c:	13da      	asrs	r2, r3, #15
 800100e:	f890 302a 	ldrb.w	r3, [r0, #42]	@ 0x2a
 8001012:	f990 1030 	ldrsb.w	r1, [r0, #48]	@ 0x30
 8001016:	4363      	muls	r3, r4
 8001018:	4361      	muls	r1, r4
 800101a:	12db      	asrs	r3, r3, #11
 800101c:	1289      	asrs	r1, r1, #10
 800101e:	f503 4300 	add.w	r3, r3, #32768	@ 0x8000
 8001022:	434b      	muls	r3, r1
 8001024:	f9b0 1028 	ldrsh.w	r1, [r0, #40]	@ 0x28
 8001028:	129b      	asrs	r3, r3, #10
 800102a:	f503 1300 	add.w	r3, r3, #2097152	@ 0x200000
 800102e:	434b      	muls	r3, r1
 8001030:	f503 5300 	add.w	r3, r3, #8192	@ 0x2000
 8001034:	139b      	asrs	r3, r3, #14
 8001036:	4353      	muls	r3, r2
 8001038:	13da      	asrs	r2, r3, #15
 800103a:	4352      	muls	r2, r2
 800103c:	f890 1026 	ldrb.w	r1, [r0, #38]	@ 0x26
 8001040:	11d2      	asrs	r2, r2, #7
 8001042:	434a      	muls	r2, r1
 8001044:	eba3 1022 	sub.w	r0, r3, r2, asr #4
 8001048:	ea20 70e0 	bic.w	r0, r0, r0, asr #31
 800104c:	f1b0 5fc8 	cmp.w	r0, #419430400	@ 0x19000000
 8001050:	bfa8      	it	ge
 8001052:	f04f 50c8 	movge.w	r0, #419430400	@ 0x19000000
 8001056:	1300      	asrs	r0, r0, #12
 8001058:	bd10      	pop	{r4, pc}

0800105a <_ZNK12BME280Sensor9ReadBurstEhPhh>:
 800105a:	b5f8      	push	{r3, r4, r5, r6, r7, lr}
 800105c:	4605      	mov	r5, r0
 800105e:	460f      	mov	r7, r1
 8001060:	4614      	mov	r4, r2
 8001062:	461e      	mov	r6, r3
 8001064:	f000 fae8 	bl	8001638 <_ZN3i2c11I2c400KHzSw14StartConditionEv>
 8001068:	2101      	movs	r1, #1
 800106a:	f895 0038 	ldrb.w	r0, [r5, #56]	@ 0x38
 800106e:	f000 fb0d 	bl	800168c <_ZN3i2c11I2c400KHzSw6TxByteEhb>
 8001072:	b118      	cbz	r0, 800107c <_ZNK12BME280Sensor9ReadBurstEhPhh+0x22>
 8001074:	f000 faec 	bl	8001650 <_ZN3i2c11I2c400KHzSw13StopConditionEv>
 8001078:	2000      	movs	r0, #0
 800107a:	bdf8      	pop	{r3, r4, r5, r6, r7, pc}
 800107c:	2101      	movs	r1, #1
 800107e:	4638      	mov	r0, r7
 8001080:	f000 fb04 	bl	800168c <_ZN3i2c11I2c400KHzSw6TxByteEhb>
 8001084:	2800      	cmp	r0, #0
 8001086:	d1f5      	bne.n	8001074 <_ZNK12BME280Sensor9ReadBurstEhPhh+0x1a>
 8001088:	f000 fae2 	bl	8001650 <_ZN3i2c11I2c400KHzSw13StopConditionEv>
 800108c:	f000 fad4 	bl	8001638 <_ZN3i2c11I2c400KHzSw14StartConditionEv>
 8001090:	2101      	movs	r1, #1
 8001092:	f895 0038 	ldrb.w	r0, [r5, #56]	@ 0x38
 8001096:	4308      	orrs	r0, r1
 8001098:	f000 faf8 	bl	800168c <_ZN3i2c11I2c400KHzSw6TxByteEhb>
 800109c:	2800      	cmp	r0, #0
 800109e:	d1e9      	bne.n	8001074 <_ZNK12BME280Sensor9ReadBurstEhPhh+0x1a>
 80010a0:	4625      	mov	r5, r4
 80010a2:	19a7      	adds	r7, r4, r6
 80010a4:	42bd      	cmp	r5, r7
 80010a6:	d103      	bne.n	80010b0 <_ZNK12BME280Sensor9ReadBurstEhPhh+0x56>
 80010a8:	f000 fad2 	bl	8001650 <_ZN3i2c11I2c400KHzSw13StopConditionEv>
 80010ac:	2001      	movs	r0, #1
 80010ae:	e7e4      	b.n	800107a <_ZNK12BME280Sensor9ReadBurstEhPhh+0x20>
 80010b0:	f000 fb58 	bl	8001764 <_ZN3i2c11I2c400KHzSw6RxByteEv>
 80010b4:	f805 0b01 	strb.w	r0, [r5], #1
 80010b8:	1b2b      	subs	r3, r5, r4
 80010ba:	429e      	cmp	r6, r3
 80010bc:	bf0c      	ite	eq
 80010be:	2001      	moveq	r0, #1
 80010c0:	2000      	movne	r0, #0
 80010c2:	f000 fad1 	bl	8001668 <_ZN3i2c11I2c400KHzSw9GetAckBitEb>
 80010c6:	e7ed      	b.n	80010a4 <_ZNK12BME280Sensor9ReadBurstEhPhh+0x4a>

080010c8 <_ZNK12BME280Sensor4ReadEhRh>:
 80010c8:	2301      	movs	r3, #1
 80010ca:	f7ff bfc6 	b.w	800105a <_ZNK12BME280Sensor9ReadBurstEhPhh>
	...

080010d0 <_ZN12BME280Sensor24ReadCalibrationConstantsEv>:
 80010d0:	b573      	push	{r0, r1, r4, r5, r6, lr}
 80010d2:	7b05      	ldrb	r5, [r0, #12]
 80010d4:	4604      	mov	r4, r0
 80010d6:	2d00      	cmp	r5, #0
 80010d8:	f040 80c2 	bne.w	8001260 <_ZN12BME280Sensor24ReadCalibrationConstantsEv+0x190>
 80010dc:	462e      	mov	r6, r5
 80010de:	21f3      	movs	r1, #243	@ 0xf3
 80010e0:	4620      	mov	r0, r4
 80010e2:	aa01      	add	r2, sp, #4
 80010e4:	f88d 6004 	strb.w	r6, [sp, #4]
 80010e8:	f7ff ffee 	bl	80010c8 <_ZNK12BME280Sensor4ReadEhRh>
 80010ec:	2800      	cmp	r0, #0
 80010ee:	f000 80b8 	beq.w	8001262 <_ZN12BME280Sensor24ReadCalibrationConstantsEv+0x192>
 80010f2:	f89d 3004 	ldrb.w	r3, [sp, #4]
 80010f6:	07db      	lsls	r3, r3, #31
 80010f8:	d4f1      	bmi.n	80010de <_ZN12BME280Sensor24ReadCalibrationConstantsEv+0xe>
 80010fa:	2302      	movs	r3, #2
 80010fc:	2188      	movs	r1, #136	@ 0x88
 80010fe:	4620      	mov	r0, r4
 8001100:	f104 020e 	add.w	r2, r4, #14
 8001104:	f7ff ffa9 	bl	800105a <_ZNK12BME280Sensor9ReadBurstEhPhh>
 8001108:	2800      	cmp	r0, #0
 800110a:	f000 80aa 	beq.w	8001262 <_ZN12BME280Sensor24ReadCalibrationConstantsEv+0x192>
 800110e:	2302      	movs	r3, #2
 8001110:	218a      	movs	r1, #138	@ 0x8a
 8001112:	4620      	mov	r0, r4
 8001114:	f104 0210 	add.w	r2, r4, #16
 8001118:	f7ff ff9f 	bl	800105a <_ZNK12BME280Sensor9ReadBurstEhPhh>
 800111c:	2800      	cmp	r0, #0
 800111e:	f000 80a0 	beq.w	8001262 <_ZN12BME280Sensor24ReadCalibrationConstantsEv+0x192>
 8001122:	2302      	movs	r3, #2
 8001124:	218c      	movs	r1, #140	@ 0x8c
 8001126:	4620      	mov	r0, r4
 8001128:	f104 0212 	add.w	r2, r4, #18
 800112c:	f7ff ff95 	bl	800105a <_ZNK12BME280Sensor9ReadBurstEhPhh>
 8001130:	2800      	cmp	r0, #0
 8001132:	f000 8096 	beq.w	8001262 <_ZN12BME280Sensor24ReadCalibrationConstantsEv+0x192>
 8001136:	2302      	movs	r3, #2
 8001138:	218e      	movs	r1, #142	@ 0x8e
 800113a:	4620      	mov	r0, r4
 800113c:	f104 0214 	add.w	r2, r4, #20
 8001140:	f7ff ff8b 	bl	800105a <_ZNK12BME280Sensor9ReadBurstEhPhh>
 8001144:	2800      	cmp	r0, #0
 8001146:	f000 808c 	beq.w	8001262 <_ZN12BME280Sensor24ReadCalibrationConstantsEv+0x192>
 800114a:	2302      	movs	r3, #2
 800114c:	2190      	movs	r1, #144	@ 0x90
 800114e:	4620      	mov	r0, r4
 8001150:	f104 0216 	add.w	r2, r4, #22
 8001154:	f7ff ff81 	bl	800105a <_ZNK12BME280Sensor9ReadBurstEhPhh>
 8001158:	2800      	cmp	r0, #0
 800115a:	f000 8082 	beq.w	8001262 <_ZN12BME280Sensor24ReadCalibrationConstantsEv+0x192>
 800115e:	2302      	movs	r3, #2
 8001160:	2192      	movs	r1, #146	@ 0x92
 8001162:	4620      	mov	r0, r4
 8001164:	f104 0218 	add.w	r2, r4, #24
 8001168:	f7ff ff77 	bl	800105a <_ZNK12BME280Sensor9ReadBurstEhPhh>
 800116c:	2800      	cmp	r0, #0
 800116e:	d078      	beq.n	8001262 <_ZN12BME280Sensor24ReadCalibrationConstantsEv+0x192>
 8001170:	2302      	movs	r3, #2
 8001172:	2194      	movs	r1, #148	@ 0x94
 8001174:	4620      	mov	r0, r4
 8001176:	f104 021a 	add.w	r2, r4, #26
 800117a:	f7ff ff6e 	bl	800105a <_ZNK12BME280Sensor9ReadBurstEhPhh>
 800117e:	2800      	cmp	r0, #0
 8001180:	d06f      	beq.n	8001262 <_ZN12BME280Sensor24ReadCalibrationConstantsEv+0x192>
 8001182:	2302      	movs	r3, #2
 8001184:	2196      	movs	r1, #150	@ 0x96
 8001186:	4620      	mov	r0, r4
 8001188:	f104 021c 	add.w	r2, r4, #28
 800118c:	f7ff ff65 	bl	800105a <_ZNK12BME280Sensor9ReadBurstEhPhh>
 8001190:	2800      	cmp	r0, #0
 8001192:	d066      	beq.n	8001262 <_ZN12BME280Sensor24ReadCalibrationConstantsEv+0x192>
 8001194:	2302      	movs	r3, #2
 8001196:	2198      	movs	r1, #152	@ 0x98
 8001198:	4620      	mov	r0, r4
 800119a:	f104 021e 	add.w	r2, r4, #30
 800119e:	f7ff ff5c 	bl	800105a <_ZNK12BME280Sensor9ReadBurstEhPhh>
 80011a2:	2800      	cmp	r0, #0
 80011a4:	d05d      	beq.n	8001262 <_ZN12BME280Sensor24ReadCalibrationConstantsEv+0x192>
 80011a6:	2302      	movs	r3, #2
 80011a8:	219a      	movs	r1, #154	@ 0x9a
 80011aa:	4620      	mov	r0, r4
 80011ac:	f104 0220 	add.w	r2, r4, #32
 80011b0:	f7ff ff53 	bl	800105a <_ZNK12BME280Sensor9ReadBurstEhPhh>
 80011b4:	2800      	cmp	r0, #0
 80011b6:	d054      	beq.n	8001262 <_ZN12BME280Sensor24ReadCalibrationConstantsEv+0x192>
 80011b8:	2302      	movs	r3, #2
 80011ba:	219c      	movs	r1, #156	@ 0x9c
 80011bc:	4620      	mov	r0, r4
 80011be:	f104 0222 	add.w	r2, r4, #34	@ 0x22
 80011c2:	f7ff ff4a 	bl	800105a <_ZNK12BME280Sensor9ReadBurstEhPhh>
 80011c6:	2800      	cmp	r0, #0
 80011c8:	d04b      	beq.n	8001262 <_ZN12BME280Sensor24ReadCalibrationConstantsEv+0x192>
 80011ca:	2302      	movs	r3, #2
 80011cc:	219e      	movs	r1, #158	@ 0x9e
 80011ce:	4620      	mov	r0, r4
 80011d0:	f104 0224 	add.w	r2, r4, #36	@ 0x24
 80011d4:	f7ff ff41 	bl	800105a <_ZNK12BME280Sensor9ReadBurstEhPhh>
 80011d8:	2800      	cmp	r0, #0
 80011da:	d042      	beq.n	8001262 <_ZN12BME280Sensor24ReadCalibrationConstantsEv+0x192>
 80011dc:	2301      	movs	r3, #1
 80011de:	21a1      	movs	r1, #161	@ 0xa1
 80011e0:	4620      	mov	r0, r4
 80011e2:	f104 0226 	add.w	r2, r4, #38	@ 0x26
 80011e6:	f7ff ff38 	bl	800105a <_ZNK12BME280Sensor9ReadBurstEhPhh>
 80011ea:	b3d0      	cbz	r0, 8001262 <_ZN12BME280Sensor24ReadCalibrationConstantsEv+0x192>
 80011ec:	2302      	movs	r3, #2
 80011ee:	21e1      	movs	r1, #225	@ 0xe1
 80011f0:	4620      	mov	r0, r4
 80011f2:	f104 0228 	add.w	r2, r4, #40	@ 0x28
 80011f6:	f7ff ff30 	bl	800105a <_ZNK12BME280Sensor9ReadBurstEhPhh>
 80011fa:	b390      	cbz	r0, 8001262 <_ZN12BME280Sensor24ReadCalibrationConstantsEv+0x192>
 80011fc:	2302      	movs	r3, #2
 80011fe:	21e3      	movs	r1, #227	@ 0xe3
 8001200:	4620      	mov	r0, r4
 8001202:	f104 022a 	add.w	r2, r4, #42	@ 0x2a
 8001206:	f7ff ff28 	bl	800105a <_ZNK12BME280Sensor9ReadBurstEhPhh>
 800120a:	b350      	cbz	r0, 8001262 <_ZN12BME280Sensor24ReadCalibrationConstantsEv+0x192>
 800120c:	4b16      	ldr	r3, [pc, #88]	@ (8001268 <_ZN12BME280Sensor24ReadCalibrationConstantsEv+0x198>)
 800120e:	21e4      	movs	r1, #228	@ 0xe4
 8001210:	881a      	ldrh	r2, [r3, #0]
 8001212:	789b      	ldrb	r3, [r3, #2]
 8001214:	f8ad 2004 	strh.w	r2, [sp, #4]
 8001218:	f88d 3006 	strb.w	r3, [sp, #6]
 800121c:	4620      	mov	r0, r4
 800121e:	2303      	movs	r3, #3
 8001220:	aa01      	add	r2, sp, #4
 8001222:	f7ff ff1a 	bl	800105a <_ZNK12BME280Sensor9ReadBurstEhPhh>
 8001226:	b1e0      	cbz	r0, 8001262 <_ZN12BME280Sensor24ReadCalibrationConstantsEv+0x192>
 8001228:	f89d 3005 	ldrb.w	r3, [sp, #5]
 800122c:	f89d 1004 	ldrb.w	r1, [sp, #4]
 8001230:	f003 020f 	and.w	r2, r3, #15
 8001234:	eb02 1201 	add.w	r2, r2, r1, lsl #4
 8001238:	85a2      	strh	r2, [r4, #44]	@ 0x2c
 800123a:	f89d 2006 	ldrb.w	r2, [sp, #6]
 800123e:	f003 03f0 	and.w	r3, r3, #240	@ 0xf0
 8001242:	eb03 2302 	add.w	r3, r3, r2, lsl #8
 8001246:	f3c3 130b 	ubfx	r3, r3, #4, #12
 800124a:	85e3      	strh	r3, [r4, #46]	@ 0x2e
 800124c:	21e7      	movs	r1, #231	@ 0xe7
 800124e:	2301      	movs	r3, #1
 8001250:	4620      	mov	r0, r4
 8001252:	f104 0230 	add.w	r2, r4, #48	@ 0x30
 8001256:	f7ff ff00 	bl	800105a <_ZNK12BME280Sensor9ReadBurstEhPhh>
 800125a:	b110      	cbz	r0, 8001262 <_ZN12BME280Sensor24ReadCalibrationConstantsEv+0x192>
 800125c:	2301      	movs	r3, #1
 800125e:	7323      	strb	r3, [r4, #12]
 8001260:	2501      	movs	r5, #1
 8001262:	4628      	mov	r0, r5
 8001264:	b002      	add	sp, #8
 8001266:	bd70      	pop	{r4, r5, r6, pc}
 8001268:	08002268 	.word	0x08002268

0800126c <_ZN12BME280Sensor10WriteBurstEhPKhh>:
 800126c:	b5f8      	push	{r3, r4, r5, r6, r7, lr}
 800126e:	4607      	mov	r7, r0
 8001270:	460e      	mov	r6, r1
 8001272:	4614      	mov	r4, r2
 8001274:	461d      	mov	r5, r3
 8001276:	f000 f9df 	bl	8001638 <_ZN3i2c11I2c400KHzSw14StartConditionEv>
 800127a:	2101      	movs	r1, #1
 800127c:	f897 0038 	ldrb.w	r0, [r7, #56]	@ 0x38
 8001280:	f000 fa04 	bl	800168c <_ZN3i2c11I2c400KHzSw6TxByteEhb>
 8001284:	b990      	cbnz	r0, 80012ac <_ZN12BME280Sensor10WriteBurstEhPKhh+0x40>
 8001286:	4425      	add	r5, r4
 8001288:	42ac      	cmp	r4, r5
 800128a:	d103      	bne.n	8001294 <_ZN12BME280Sensor10WriteBurstEhPKhh+0x28>
 800128c:	f000 f9e0 	bl	8001650 <_ZN3i2c11I2c400KHzSw13StopConditionEv>
 8001290:	2001      	movs	r0, #1
 8001292:	e00e      	b.n	80012b2 <_ZN12BME280Sensor10WriteBurstEhPKhh+0x46>
 8001294:	2101      	movs	r1, #1
 8001296:	4630      	mov	r0, r6
 8001298:	f000 f9f8 	bl	800168c <_ZN3i2c11I2c400KHzSw6TxByteEhb>
 800129c:	b930      	cbnz	r0, 80012ac <_ZN12BME280Sensor10WriteBurstEhPKhh+0x40>
 800129e:	2101      	movs	r1, #1
 80012a0:	f814 0b01 	ldrb.w	r0, [r4], #1
 80012a4:	f000 f9f2 	bl	800168c <_ZN3i2c11I2c400KHzSw6TxByteEhb>
 80012a8:	2800      	cmp	r0, #0
 80012aa:	d0ed      	beq.n	8001288 <_ZN12BME280Sensor10WriteBurstEhPKhh+0x1c>
 80012ac:	f000 f9d0 	bl	8001650 <_ZN3i2c11I2c400KHzSw13StopConditionEv>
 80012b0:	2000      	movs	r0, #0
 80012b2:	bdf8      	pop	{r3, r4, r5, r6, r7, pc}

080012b4 <_ZN12BME280Sensor5WriteEhh>:
 80012b4:	b507      	push	{r0, r1, r2, lr}
 80012b6:	2301      	movs	r3, #1
 80012b8:	f88d 2007 	strb.w	r2, [sp, #7]
 80012bc:	f10d 0207 	add.w	r2, sp, #7
 80012c0:	f7ff ffd4 	bl	800126c <_ZN12BME280Sensor10WriteBurstEhPKhh>
 80012c4:	b003      	add	sp, #12
 80012c6:	f85d fb04 	ldr.w	pc, [sp], #4

080012ca <_ZN12BME280Sensor9ReadProbeEv>:
 80012ca:	b530      	push	{r4, r5, lr}
 80012cc:	b085      	sub	sp, #20
 80012ce:	4604      	mov	r4, r0
 80012d0:	f7ff fefe 	bl	80010d0 <_ZN12BME280Sensor24ReadCalibrationConstantsEv>
 80012d4:	b918      	cbnz	r0, 80012de <_ZN12BME280Sensor9ReadProbeEv+0x14>
 80012d6:	2500      	movs	r5, #0
 80012d8:	4628      	mov	r0, r5
 80012da:	b005      	add	sp, #20
 80012dc:	bd30      	pop	{r4, r5, pc}
 80012de:	2205      	movs	r2, #5
 80012e0:	21f2      	movs	r1, #242	@ 0xf2
 80012e2:	4620      	mov	r0, r4
 80012e4:	f7ff ffe6 	bl	80012b4 <_ZN12BME280Sensor5WriteEhh>
 80012e8:	2800      	cmp	r0, #0
 80012ea:	d0f4      	beq.n	80012d6 <_ZN12BME280Sensor9ReadProbeEv+0xc>
 80012ec:	22b5      	movs	r2, #181	@ 0xb5
 80012ee:	21f4      	movs	r1, #244	@ 0xf4
 80012f0:	4620      	mov	r0, r4
 80012f2:	f7ff ffdf 	bl	80012b4 <_ZN12BME280Sensor5WriteEhh>
 80012f6:	2800      	cmp	r0, #0
 80012f8:	d0ed      	beq.n	80012d6 <_ZN12BME280Sensor9ReadProbeEv+0xc>
 80012fa:	2300      	movs	r3, #0
 80012fc:	f88d 3007 	strb.w	r3, [sp, #7]
 8001300:	21f3      	movs	r1, #243	@ 0xf3
 8001302:	4620      	mov	r0, r4
 8001304:	f10d 0207 	add.w	r2, sp, #7
 8001308:	f7ff fede 	bl	80010c8 <_ZNK12BME280Sensor4ReadEhRh>
 800130c:	2800      	cmp	r0, #0
 800130e:	d0e2      	beq.n	80012d6 <_ZN12BME280Sensor9ReadProbeEv+0xc>
 8001310:	f89d 3007 	ldrb.w	r3, [sp, #7]
 8001314:	071b      	lsls	r3, r3, #28
 8001316:	d4f3      	bmi.n	8001300 <_ZN12BME280Sensor9ReadProbeEv+0x36>
 8001318:	2308      	movs	r3, #8
 800131a:	21f7      	movs	r1, #247	@ 0xf7
 800131c:	4620      	mov	r0, r4
 800131e:	eb0d 0203 	add.w	r2, sp, r3
 8001322:	f7ff fe9a 	bl	800105a <_ZNK12BME280Sensor9ReadBurstEhPhh>
 8001326:	4605      	mov	r5, r0
 8001328:	2800      	cmp	r0, #0
 800132a:	d0d4      	beq.n	80012d6 <_ZN12BME280Sensor9ReadProbeEv+0xc>
 800132c:	f89d 100c 	ldrb.w	r1, [sp, #12]
 8001330:	f89d 300b 	ldrb.w	r3, [sp, #11]
 8001334:	0209      	lsls	r1, r1, #8
 8001336:	eb01 4103 	add.w	r1, r1, r3, lsl #16
 800133a:	f89d 300d 	ldrb.w	r3, [sp, #13]
 800133e:	4620      	mov	r0, r4
 8001340:	4419      	add	r1, r3
 8001342:	0909      	lsrs	r1, r1, #4
 8001344:	f7ff fd94 	bl	8000e70 <_ZN12BME280Sensor30GetTemperatureWithCompensationEl>
 8001348:	f89d 1009 	ldrb.w	r1, [sp, #9]
 800134c:	f89d 3008 	ldrb.w	r3, [sp, #8]
 8001350:	0209      	lsls	r1, r1, #8
 8001352:	eb01 4103 	add.w	r1, r1, r3, lsl #16
 8001356:	f89d 300a 	ldrb.w	r3, [sp, #10]
 800135a:	8020      	strh	r0, [r4, #0]
 800135c:	4419      	add	r1, r3
 800135e:	0909      	lsrs	r1, r1, #4
 8001360:	4620      	mov	r0, r4
 8001362:	f7ff fd9d 	bl	8000ea0 <_ZN12BME280Sensor28GetPressureWithCompensationsEl>
 8001366:	f8bd 100e 	ldrh.w	r1, [sp, #14]
 800136a:	6060      	str	r0, [r4, #4]
 800136c:	ba49      	rev16	r1, r1
 800136e:	4620      	mov	r0, r4
 8001370:	b289      	uxth	r1, r1
 8001372:	f7ff fe3c 	bl	8000fee <_ZN12BME280Sensor27GetHumidityWithCompensationEl>
 8001376:	60a0      	str	r0, [r4, #8]
 8001378:	e7ae      	b.n	80012d8 <_ZN12BME280Sensor9ReadProbeEv+0xe>

0800137a <_ZN13BatterySensorC1Ev>:
 800137a:	b510      	push	{r4, lr}
 800137c:	4604      	mov	r4, r0
 800137e:	2202      	movs	r2, #2
 8001380:	2100      	movs	r1, #0
 8001382:	f7ff fd1f 	bl	8000dc4 <_ZN13AdcSingleReadC1ENS_9AdcNumberENS_10AdcChannelE>
 8001386:	4620      	mov	r0, r4
 8001388:	bd10      	pop	{r4, pc}
	...

0800138c <_ZNK13BatterySensor14GetVoltageInMvEv>:
 800138c:	b570      	push	{r4, r5, r6, lr}
 800138e:	4606      	mov	r6, r0
 8001390:	2564      	movs	r5, #100	@ 0x64
 8001392:	2400      	movs	r4, #0
 8001394:	4630      	mov	r0, r6
 8001396:	f7ff fc99 	bl	8000ccc <_ZNK13AdcSingleRead4ReadEv>
 800139a:	3d01      	subs	r5, #1
 800139c:	4404      	add	r4, r0
 800139e:	d1f9      	bne.n	8001394 <_ZNK13BatterySensor14GetVoltageInMvEv+0x8>
 80013a0:	f640 33dd 	movw	r3, #3037	@ 0xbdd
 80013a4:	fb03 f004 	mul.w	r0, r3, r4
 80013a8:	4b02      	ldr	r3, [pc, #8]	@ (80013b4 <_ZNK13BatterySensor14GetVoltageInMvEv+0x28>)
 80013aa:	fbb0 f0f3 	udiv	r0, r0, r3
 80013ae:	b280      	uxth	r0, r0
 80013b0:	bd70      	pop	{r4, r5, r6, pc}
 80013b2:	bf00      	nop
 80013b4:	000186a0 	.word	0x000186a0

080013b8 <_ZN10DelayTimer4InitEtt>:
 80013b8:	4a0e      	ldr	r2, [pc, #56]	@ (80013f4 <_ZN10DelayTimer4InitEtt+0x3c>)
 80013ba:	6993      	ldr	r3, [r2, #24]
 80013bc:	f443 6300 	orr.w	r3, r3, #2048	@ 0x800
 80013c0:	6193      	str	r3, [r2, #24]
 80013c2:	4b0d      	ldr	r3, [pc, #52]	@ (80013f8 <_ZN10DelayTimer4InitEtt+0x40>)
 80013c4:	689a      	ldr	r2, [r3, #8]
 80013c6:	f022 0207 	bic.w	r2, r2, #7
 80013ca:	609a      	str	r2, [r3, #8]
 80013cc:	2201      	movs	r2, #1
 80013ce:	601a      	str	r2, [r3, #0]
 80013d0:	681a      	ldr	r2, [r3, #0]
 80013d2:	f022 0280 	bic.w	r2, r2, #128	@ 0x80
 80013d6:	601a      	str	r2, [r3, #0]
 80013d8:	2200      	movs	r2, #0
 80013da:	60da      	str	r2, [r3, #12]
 80013dc:	6299      	str	r1, [r3, #40]	@ 0x28
 80013de:	62d8      	str	r0, [r3, #44]	@ 0x2c
 80013e0:	625a      	str	r2, [r3, #36]	@ 0x24
 80013e2:	695a      	ldr	r2, [r3, #20]
 80013e4:	f042 0201 	orr.w	r2, r2, #1
 80013e8:	615a      	str	r2, [r3, #20]
 80013ea:	691a      	ldr	r2, [r3, #16]
 80013ec:	f022 0201 	bic.w	r2, r2, #1
 80013f0:	611a      	str	r2, [r3, #16]
 80013f2:	4770      	bx	lr
 80013f4:	40021000 	.word	0x40021000
 80013f8:	40012c00 	.word	0x40012c00

080013fc <_ZN10DelayTimer13DelayMicroSecEt>:
 80013fc:	2100      	movs	r1, #0
 80013fe:	b508      	push	{r3, lr}
 8001400:	f7ff ffda 	bl	80013b8 <_ZN10DelayTimer4InitEtt>
 8001404:	4a02      	ldr	r2, [pc, #8]	@ (8001410 <_ZN10DelayTimer13DelayMicroSecEt+0x14>)
 8001406:	6913      	ldr	r3, [r2, #16]
 8001408:	07db      	lsls	r3, r3, #31
 800140a:	d5fc      	bpl.n	8001406 <_ZN10DelayTimer13DelayMicroSecEt+0xa>
 800140c:	bd08      	pop	{r3, pc}
 800140e:	bf00      	nop
 8001410:	40012c00 	.word	0x40012c00

08001414 <_ZN10DelayTimer13DelayMilliSecEt>:
 8001414:	f240 31e7 	movw	r1, #999	@ 0x3e7
 8001418:	b508      	push	{r3, lr}
 800141a:	f7ff ffcd 	bl	80013b8 <_ZN10DelayTimer4InitEtt>
 800141e:	4a02      	ldr	r2, [pc, #8]	@ (8001428 <_ZN10DelayTimer13DelayMilliSecEt+0x14>)
 8001420:	6913      	ldr	r3, [r2, #16]
 8001422:	07db      	lsls	r3, r3, #31
 8001424:	d5fc      	bpl.n	8001420 <_ZN10DelayTimer13DelayMilliSecEt+0xc>
 8001426:	bd08      	pop	{r3, pc}
 8001428:	40012c00 	.word	0x40012c00

0800142c <_ZN8ErrorLed5LedOnEv>:
 800142c:	4a02      	ldr	r2, [pc, #8]	@ (8001438 <_ZN8ErrorLed5LedOnEv+0xc>)
 800142e:	6913      	ldr	r3, [r2, #16]
 8001430:	f043 0380 	orr.w	r3, r3, #128	@ 0x80
 8001434:	6113      	str	r3, [r2, #16]
 8001436:	4770      	bx	lr
 8001438:	40010800 	.word	0x40010800

0800143c <_ZN8ErrorLed6LedOffEv>:
 800143c:	4a02      	ldr	r2, [pc, #8]	@ (8001448 <_ZN8ErrorLed6LedOffEv+0xc>)
 800143e:	6953      	ldr	r3, [r2, #20]
 8001440:	f043 0380 	orr.w	r3, r3, #128	@ 0x80
 8001444:	6153      	str	r3, [r2, #20]
 8001446:	4770      	bx	lr
 8001448:	40010800 	.word	0x40010800

0800144c <_ZNK8ErrorLed4InitEv>:
 800144c:	b510      	push	{r4, lr}
 800144e:	4c06      	ldr	r4, [pc, #24]	@ (8001468 <_ZNK8ErrorLed4InitEv+0x1c>)
 8001450:	4620      	mov	r0, r4
 8001452:	f000 f837 	bl	80014c4 <_ZN16GpioConfigurator15GpioClockEnableEP12GPIO_TypeDef>
 8001456:	4620      	mov	r0, r4
 8001458:	2107      	movs	r1, #7
 800145a:	f000 f85f 	bl	800151c <_ZN16GpioConfigurator18SetGpioOutPushPullEP12GPIO_TypeDefh>
 800145e:	e8bd 4010 	ldmia.w	sp!, {r4, lr}
 8001462:	f7ff bfeb 	b.w	800143c <_ZN8ErrorLed6LedOffEv>
 8001466:	bf00      	nop
 8001468:	40010800 	.word	0x40010800

0800146c <_ZN8ErrorLedC1Ev>:
 800146c:	b510      	push	{r4, lr}
 800146e:	4604      	mov	r4, r0
 8001470:	f7ff ffec 	bl	800144c <_ZNK8ErrorLed4InitEv>
 8001474:	4620      	mov	r0, r4
 8001476:	bd10      	pop	{r4, pc}

08001478 <_ZNK8ErrorLed9ShowErrorENS_9ErrorTypeE>:
 8001478:	b538      	push	{r3, r4, r5, lr}
 800147a:	2904      	cmp	r1, #4
 800147c:	d804      	bhi.n	8001488 <_ZNK8ErrorLed9ShowErrorENS_9ErrorTypeE+0x10>
 800147e:	e8df f001 	tbb	[pc, r1]
 8001482:	1c12      	.short	0x1c12
 8001484:	1816      	.short	0x1816
 8001486:	1a          	.byte	0x1a
 8001487:	00          	.byte	0x00
 8001488:	2400      	movs	r4, #0
 800148a:	2500      	movs	r5, #0
 800148c:	fa44 f305 	asr.w	r3, r4, r5
 8001490:	07db      	lsls	r3, r3, #31
 8001492:	d514      	bpl.n	80014be <_ZNK8ErrorLed9ShowErrorENS_9ErrorTypeE+0x46>
 8001494:	f7ff ffca 	bl	800142c <_ZN8ErrorLed5LedOnEv>
 8001498:	20c8      	movs	r0, #200	@ 0xc8
 800149a:	3501      	adds	r5, #1
 800149c:	f7ff ffba 	bl	8001414 <_ZN10DelayTimer13DelayMilliSecEt>
 80014a0:	2d10      	cmp	r5, #16
 80014a2:	d1f3      	bne.n	800148c <_ZNK8ErrorLed9ShowErrorENS_9ErrorTypeE+0x14>
 80014a4:	bd38      	pop	{r3, r4, r5, pc}
 80014a6:	e8bd 4038 	ldmia.w	sp!, {r3, r4, r5, lr}
 80014aa:	f7ff bfc7 	b.w	800143c <_ZN8ErrorLed6LedOffEv>
 80014ae:	2405      	movs	r4, #5
 80014b0:	e7eb      	b.n	800148a <_ZNK8ErrorLed9ShowErrorENS_9ErrorTypeE+0x12>
 80014b2:	2415      	movs	r4, #21
 80014b4:	e7e9      	b.n	800148a <_ZNK8ErrorLed9ShowErrorENS_9ErrorTypeE+0x12>
 80014b6:	2455      	movs	r4, #85	@ 0x55
 80014b8:	e7e7      	b.n	800148a <_ZNK8ErrorLed9ShowErrorENS_9ErrorTypeE+0x12>
 80014ba:	2401      	movs	r4, #1
 80014bc:	e7e5      	b.n	800148a <_ZNK8ErrorLed9ShowErrorENS_9ErrorTypeE+0x12>
 80014be:	f7ff ffbd 	bl	800143c <_ZN8ErrorLed6LedOffEv>
 80014c2:	e7e9      	b.n	8001498 <_ZNK8ErrorLed9ShowErrorENS_9ErrorTypeE+0x20>

080014c4 <_ZN16GpioConfigurator15GpioClockEnableEP12GPIO_TypeDef>:
 80014c4:	4b10      	ldr	r3, [pc, #64]	@ (8001508 <_ZN16GpioConfigurator15GpioClockEnableEP12GPIO_TypeDef+0x44>)
 80014c6:	4298      	cmp	r0, r3
 80014c8:	d105      	bne.n	80014d6 <_ZN16GpioConfigurator15GpioClockEnableEP12GPIO_TypeDef+0x12>
 80014ca:	4a10      	ldr	r2, [pc, #64]	@ (800150c <_ZN16GpioConfigurator15GpioClockEnableEP12GPIO_TypeDef+0x48>)
 80014cc:	6993      	ldr	r3, [r2, #24]
 80014ce:	f043 0304 	orr.w	r3, r3, #4
 80014d2:	6193      	str	r3, [r2, #24]
 80014d4:	4770      	bx	lr
 80014d6:	4b0e      	ldr	r3, [pc, #56]	@ (8001510 <_ZN16GpioConfigurator15GpioClockEnableEP12GPIO_TypeDef+0x4c>)
 80014d8:	4298      	cmp	r0, r3
 80014da:	d104      	bne.n	80014e6 <_ZN16GpioConfigurator15GpioClockEnableEP12GPIO_TypeDef+0x22>
 80014dc:	4a0b      	ldr	r2, [pc, #44]	@ (800150c <_ZN16GpioConfigurator15GpioClockEnableEP12GPIO_TypeDef+0x48>)
 80014de:	6993      	ldr	r3, [r2, #24]
 80014e0:	f043 0308 	orr.w	r3, r3, #8
 80014e4:	e7f5      	b.n	80014d2 <_ZN16GpioConfigurator15GpioClockEnableEP12GPIO_TypeDef+0xe>
 80014e6:	4b0b      	ldr	r3, [pc, #44]	@ (8001514 <_ZN16GpioConfigurator15GpioClockEnableEP12GPIO_TypeDef+0x50>)
 80014e8:	4298      	cmp	r0, r3
 80014ea:	d104      	bne.n	80014f6 <_ZN16GpioConfigurator15GpioClockEnableEP12GPIO_TypeDef+0x32>
 80014ec:	4a07      	ldr	r2, [pc, #28]	@ (800150c <_ZN16GpioConfigurator15GpioClockEnableEP12GPIO_TypeDef+0x48>)
 80014ee:	6993      	ldr	r3, [r2, #24]
 80014f0:	f043 0310 	orr.w	r3, r3, #16
 80014f4:	e7ed      	b.n	80014d2 <_ZN16GpioConfigurator15GpioClockEnableEP12GPIO_TypeDef+0xe>
 80014f6:	4b08      	ldr	r3, [pc, #32]	@ (8001518 <_ZN16GpioConfigurator15GpioClockEnableEP12GPIO_TypeDef+0x54>)
 80014f8:	4298      	cmp	r0, r3
 80014fa:	d1eb      	bne.n	80014d4 <_ZN16GpioConfigurator15GpioClockEnableEP12GPIO_TypeDef+0x10>
 80014fc:	4a03      	ldr	r2, [pc, #12]	@ (800150c <_ZN16GpioConfigurator15GpioClockEnableEP12GPIO_TypeDef+0x48>)
 80014fe:	6993      	ldr	r3, [r2, #24]
 8001500:	f043 0320 	orr.w	r3, r3, #32
 8001504:	e7e5      	b.n	80014d2 <_ZN16GpioConfigurator15GpioClockEnableEP12GPIO_TypeDef+0xe>
 8001506:	bf00      	nop
 8001508:	40010800 	.word	0x40010800
 800150c:	40021000 	.word	0x40021000
 8001510:	40010c00 	.word	0x40010c00
 8001514:	40011000 	.word	0x40011000
 8001518:	40011400 	.word	0x40011400

0800151c <_ZN16GpioConfigurator18SetGpioOutPushPullEP12GPIO_TypeDefh>:
 800151c:	220f      	movs	r2, #15
 800151e:	b510      	push	{r4, lr}
 8001520:	2401      	movs	r4, #1
 8001522:	2907      	cmp	r1, #7
 8001524:	bf86      	itte	hi
 8001526:	f1a1 0308 	subhi.w	r3, r1, #8
 800152a:	009b      	lslhi	r3, r3, #2
 800152c:	008b      	lslls	r3, r1, #2
 800152e:	b2db      	uxtb	r3, r3
 8001530:	409c      	lsls	r4, r3
 8001532:	2907      	cmp	r1, #7
 8001534:	fa02 f303 	lsl.w	r3, r2, r3
 8001538:	ea6f 0303 	mvn.w	r3, r3
 800153c:	d906      	bls.n	800154c <_ZN16GpioConfigurator18SetGpioOutPushPullEP12GPIO_TypeDefh+0x30>
 800153e:	6842      	ldr	r2, [r0, #4]
 8001540:	4013      	ands	r3, r2
 8001542:	6043      	str	r3, [r0, #4]
 8001544:	6843      	ldr	r3, [r0, #4]
 8001546:	4323      	orrs	r3, r4
 8001548:	6043      	str	r3, [r0, #4]
 800154a:	bd10      	pop	{r4, pc}
 800154c:	6802      	ldr	r2, [r0, #0]
 800154e:	4013      	ands	r3, r2
 8001550:	6003      	str	r3, [r0, #0]
 8001552:	6803      	ldr	r3, [r0, #0]
 8001554:	4323      	orrs	r3, r4
 8001556:	6003      	str	r3, [r0, #0]
 8001558:	e7f7      	b.n	800154a <_ZN16GpioConfigurator18SetGpioOutPushPullEP12GPIO_TypeDefh+0x2e>

0800155a <_ZN16GpioConfigurator19SetGpioOutOpenDrainEP12GPIO_TypeDefh>:
 800155a:	220f      	movs	r2, #15
 800155c:	b510      	push	{r4, lr}
 800155e:	2405      	movs	r4, #5
 8001560:	2907      	cmp	r1, #7
 8001562:	bf86      	itte	hi
 8001564:	f1a1 0308 	subhi.w	r3, r1, #8
 8001568:	009b      	lslhi	r3, r3, #2
 800156a:	008b      	lslls	r3, r1, #2
 800156c:	b2db      	uxtb	r3, r3
 800156e:	409c      	lsls	r4, r3
 8001570:	2907      	cmp	r1, #7
 8001572:	fa02 f303 	lsl.w	r3, r2, r3
 8001576:	ea6f 0303 	mvn.w	r3, r3
 800157a:	d906      	bls.n	800158a <_ZN16GpioConfigurator19SetGpioOutOpenDrainEP12GPIO_TypeDefh+0x30>
 800157c:	6842      	ldr	r2, [r0, #4]
 800157e:	4013      	ands	r3, r2
 8001580:	6043      	str	r3, [r0, #4]
 8001582:	6843      	ldr	r3, [r0, #4]
 8001584:	4323      	orrs	r3, r4
 8001586:	6043      	str	r3, [r0, #4]
 8001588:	bd10      	pop	{r4, pc}
 800158a:	6802      	ldr	r2, [r0, #0]
 800158c:	4013      	ands	r3, r2
 800158e:	6003      	str	r3, [r0, #0]
 8001590:	6803      	ldr	r3, [r0, #0]
 8001592:	4323      	orrs	r3, r4
 8001594:	6003      	str	r3, [r0, #0]
 8001596:	e7f7      	b.n	8001588 <_ZN16GpioConfigurator19SetGpioOutOpenDrainEP12GPIO_TypeDefh+0x2e>

08001598 <_ZN16GpioConfigurator17SetGpioInFloatingEP12GPIO_TypeDefh>:
 8001598:	220f      	movs	r2, #15
 800159a:	b510      	push	{r4, lr}
 800159c:	2404      	movs	r4, #4
 800159e:	2907      	cmp	r1, #7
 80015a0:	bf86      	itte	hi
 80015a2:	f1a1 0308 	subhi.w	r3, r1, #8
 80015a6:	009b      	lslhi	r3, r3, #2
 80015a8:	008b      	lslls	r3, r1, #2
 80015aa:	b2db      	uxtb	r3, r3
 80015ac:	409c      	lsls	r4, r3
 80015ae:	2907      	cmp	r1, #7
 80015b0:	fa02 f303 	lsl.w	r3, r2, r3
 80015b4:	ea6f 0303 	mvn.w	r3, r3
 80015b8:	d906      	bls.n	80015c8 <_ZN16GpioConfigurator17SetGpioInFloatingEP12GPIO_TypeDefh+0x30>
 80015ba:	6842      	ldr	r2, [r0, #4]
 80015bc:	4013      	ands	r3, r2
 80015be:	6043      	str	r3, [r0, #4]
 80015c0:	6843      	ldr	r3, [r0, #4]
 80015c2:	4323      	orrs	r3, r4
 80015c4:	6043      	str	r3, [r0, #4]
 80015c6:	bd10      	pop	{r4, pc}
 80015c8:	6802      	ldr	r2, [r0, #0]
 80015ca:	4013      	ands	r3, r2
 80015cc:	6003      	str	r3, [r0, #0]
 80015ce:	6803      	ldr	r3, [r0, #0]
 80015d0:	4323      	orrs	r3, r4
 80015d2:	6003      	str	r3, [r0, #0]
 80015d4:	e7f7      	b.n	80015c6 <_ZN16GpioConfigurator17SetGpioInFloatingEP12GPIO_TypeDefh+0x2e>

080015d6 <_ZN16GpioConfigurator17SetGpioAnalogModeEP12GPIO_TypeDefh>:
 80015d6:	220f      	movs	r2, #15
 80015d8:	2907      	cmp	r1, #7
 80015da:	bf86      	itte	hi
 80015dc:	f1a1 0308 	subhi.w	r3, r1, #8
 80015e0:	009b      	lslhi	r3, r3, #2
 80015e2:	008b      	lslls	r3, r1, #2
 80015e4:	b2db      	uxtb	r3, r3
 80015e6:	fa02 f303 	lsl.w	r3, r2, r3
 80015ea:	2907      	cmp	r1, #7
 80015ec:	ea6f 0303 	mvn.w	r3, r3
 80015f0:	d905      	bls.n	80015fe <_ZN16GpioConfigurator17SetGpioAnalogModeEP12GPIO_TypeDefh+0x28>
 80015f2:	6842      	ldr	r2, [r0, #4]
 80015f4:	4013      	ands	r3, r2
 80015f6:	6043      	str	r3, [r0, #4]
 80015f8:	6843      	ldr	r3, [r0, #4]
 80015fa:	6043      	str	r3, [r0, #4]
 80015fc:	4770      	bx	lr
 80015fe:	6802      	ldr	r2, [r0, #0]
 8001600:	4013      	ands	r3, r2
 8001602:	6003      	str	r3, [r0, #0]
 8001604:	6803      	ldr	r3, [r0, #0]
 8001606:	6003      	str	r3, [r0, #0]
 8001608:	4770      	bx	lr
	...

0800160c <_ZN3i2c11I2c400KHzSw4InitEv>:
 800160c:	b510      	push	{r4, lr}
 800160e:	4c09      	ldr	r4, [pc, #36]	@ (8001634 <_ZN3i2c11I2c400KHzSw4InitEv+0x28>)
 8001610:	4620      	mov	r0, r4
 8001612:	f7ff ff57 	bl	80014c4 <_ZN16GpioConfigurator15GpioClockEnableEP12GPIO_TypeDef>
 8001616:	2380      	movs	r3, #128	@ 0x80
 8001618:	6123      	str	r3, [r4, #16]
 800161a:	2340      	movs	r3, #64	@ 0x40
 800161c:	4620      	mov	r0, r4
 800161e:	6123      	str	r3, [r4, #16]
 8001620:	2107      	movs	r1, #7
 8001622:	f7ff ff9a 	bl	800155a <_ZN16GpioConfigurator19SetGpioOutOpenDrainEP12GPIO_TypeDefh>
 8001626:	2106      	movs	r1, #6
 8001628:	4620      	mov	r0, r4
 800162a:	f7ff ff96 	bl	800155a <_ZN16GpioConfigurator19SetGpioOutOpenDrainEP12GPIO_TypeDefh>
 800162e:	bf00      	nop
 8001630:	bd10      	pop	{r4, pc}
 8001632:	bf00      	nop
 8001634:	40010c00 	.word	0x40010c00

08001638 <_ZN3i2c11I2c400KHzSw14StartConditionEv>:
 8001638:	2240      	movs	r2, #64	@ 0x40
 800163a:	4b04      	ldr	r3, [pc, #16]	@ (800164c <_ZN3i2c11I2c400KHzSw14StartConditionEv+0x14>)
 800163c:	611a      	str	r2, [r3, #16]
 800163e:	bf00      	nop
 8001640:	2180      	movs	r1, #128	@ 0x80
 8001642:	6159      	str	r1, [r3, #20]
 8001644:	bf00      	nop
 8001646:	615a      	str	r2, [r3, #20]
 8001648:	bf00      	nop
 800164a:	4770      	bx	lr
 800164c:	40010c00 	.word	0x40010c00

08001650 <_ZN3i2c11I2c400KHzSw13StopConditionEv>:
 8001650:	2280      	movs	r2, #128	@ 0x80
 8001652:	4b04      	ldr	r3, [pc, #16]	@ (8001664 <_ZN3i2c11I2c400KHzSw13StopConditionEv+0x14>)
 8001654:	615a      	str	r2, [r3, #20]
 8001656:	bf00      	nop
 8001658:	2140      	movs	r1, #64	@ 0x40
 800165a:	6119      	str	r1, [r3, #16]
 800165c:	bf00      	nop
 800165e:	611a      	str	r2, [r3, #16]
 8001660:	bf00      	nop
 8001662:	4770      	bx	lr
 8001664:	40010c00 	.word	0x40010c00

08001668 <_ZN3i2c11I2c400KHzSw9GetAckBitEb>:
 8001668:	2280      	movs	r2, #128	@ 0x80
 800166a:	4b07      	ldr	r3, [pc, #28]	@ (8001688 <_ZN3i2c11I2c400KHzSw9GetAckBitEb+0x20>)
 800166c:	b150      	cbz	r0, 8001684 <_ZN3i2c11I2c400KHzSw9GetAckBitEb+0x1c>
 800166e:	611a      	str	r2, [r3, #16]
 8001670:	bf00      	nop
 8001672:	2240      	movs	r2, #64	@ 0x40
 8001674:	611a      	str	r2, [r3, #16]
 8001676:	bf00      	nop
 8001678:	6898      	ldr	r0, [r3, #8]
 800167a:	615a      	str	r2, [r3, #20]
 800167c:	bf00      	nop
 800167e:	f3c0 10c0 	ubfx	r0, r0, #7, #1
 8001682:	4770      	bx	lr
 8001684:	615a      	str	r2, [r3, #20]
 8001686:	e7f3      	b.n	8001670 <_ZN3i2c11I2c400KHzSw9GetAckBitEb+0x8>
 8001688:	40010c00 	.word	0x40010c00

0800168c <_ZN3i2c11I2c400KHzSw6TxByteEhb>:
 800168c:	4603      	mov	r3, r0
 800168e:	4608      	mov	r0, r1
 8001690:	2180      	movs	r1, #128	@ 0x80
 8001692:	4a33      	ldr	r2, [pc, #204]	@ (8001760 <_ZN3i2c11I2c400KHzSw6TxByteEhb+0xd4>)
 8001694:	f013 0f80 	tst.w	r3, #128	@ 0x80
 8001698:	bf14      	ite	ne
 800169a:	6111      	strne	r1, [r2, #16]
 800169c:	6151      	streq	r1, [r2, #20]
 800169e:	bf00      	nop
 80016a0:	2140      	movs	r1, #64	@ 0x40
 80016a2:	6111      	str	r1, [r2, #16]
 80016a4:	bf00      	nop
 80016a6:	6151      	str	r1, [r2, #20]
 80016a8:	bf00      	nop
 80016aa:	2180      	movs	r1, #128	@ 0x80
 80016ac:	f013 0f40 	tst.w	r3, #64	@ 0x40
 80016b0:	bf14      	ite	ne
 80016b2:	6111      	strne	r1, [r2, #16]
 80016b4:	6151      	streq	r1, [r2, #20]
 80016b6:	bf00      	nop
 80016b8:	2140      	movs	r1, #64	@ 0x40
 80016ba:	4a29      	ldr	r2, [pc, #164]	@ (8001760 <_ZN3i2c11I2c400KHzSw6TxByteEhb+0xd4>)
 80016bc:	6111      	str	r1, [r2, #16]
 80016be:	bf00      	nop
 80016c0:	6151      	str	r1, [r2, #20]
 80016c2:	bf00      	nop
 80016c4:	2180      	movs	r1, #128	@ 0x80
 80016c6:	f013 0f20 	tst.w	r3, #32
 80016ca:	bf14      	ite	ne
 80016cc:	6111      	strne	r1, [r2, #16]
 80016ce:	6151      	streq	r1, [r2, #20]
 80016d0:	bf00      	nop
 80016d2:	2140      	movs	r1, #64	@ 0x40
 80016d4:	6111      	str	r1, [r2, #16]
 80016d6:	bf00      	nop
 80016d8:	6151      	str	r1, [r2, #20]
 80016da:	bf00      	nop
 80016dc:	2180      	movs	r1, #128	@ 0x80
 80016de:	f013 0f10 	tst.w	r3, #16
 80016e2:	bf14      	ite	ne
 80016e4:	6111      	strne	r1, [r2, #16]
 80016e6:	6151      	streq	r1, [r2, #20]
 80016e8:	bf00      	nop
 80016ea:	2140      	movs	r1, #64	@ 0x40
 80016ec:	4a1c      	ldr	r2, [pc, #112]	@ (8001760 <_ZN3i2c11I2c400KHzSw6TxByteEhb+0xd4>)
 80016ee:	6111      	str	r1, [r2, #16]
 80016f0:	bf00      	nop
 80016f2:	6151      	str	r1, [r2, #20]
 80016f4:	bf00      	nop
 80016f6:	2180      	movs	r1, #128	@ 0x80
 80016f8:	f013 0f08 	tst.w	r3, #8
 80016fc:	bf14      	ite	ne
 80016fe:	6111      	strne	r1, [r2, #16]
 8001700:	6151      	streq	r1, [r2, #20]
 8001702:	bf00      	nop
 8001704:	2140      	movs	r1, #64	@ 0x40
 8001706:	6111      	str	r1, [r2, #16]
 8001708:	bf00      	nop
 800170a:	6151      	str	r1, [r2, #20]
 800170c:	bf00      	nop
 800170e:	2180      	movs	r1, #128	@ 0x80
 8001710:	f013 0f04 	tst.w	r3, #4
 8001714:	bf14      	ite	ne
 8001716:	6111      	strne	r1, [r2, #16]
 8001718:	6151      	streq	r1, [r2, #20]
 800171a:	bf00      	nop
 800171c:	2140      	movs	r1, #64	@ 0x40
 800171e:	4a10      	ldr	r2, [pc, #64]	@ (8001760 <_ZN3i2c11I2c400KHzSw6TxByteEhb+0xd4>)
 8001720:	6111      	str	r1, [r2, #16]
 8001722:	bf00      	nop
 8001724:	6151      	str	r1, [r2, #20]
 8001726:	bf00      	nop
 8001728:	2180      	movs	r1, #128	@ 0x80
 800172a:	f013 0f02 	tst.w	r3, #2
 800172e:	bf14      	ite	ne
 8001730:	6111      	strne	r1, [r2, #16]
 8001732:	6151      	streq	r1, [r2, #20]
 8001734:	bf00      	nop
 8001736:	2140      	movs	r1, #64	@ 0x40
 8001738:	6111      	str	r1, [r2, #16]
 800173a:	bf00      	nop
 800173c:	6151      	str	r1, [r2, #20]
 800173e:	bf00      	nop
 8001740:	f013 0f01 	tst.w	r3, #1
 8001744:	f04f 0380 	mov.w	r3, #128	@ 0x80
 8001748:	bf14      	ite	ne
 800174a:	6113      	strne	r3, [r2, #16]
 800174c:	6153      	streq	r3, [r2, #20]
 800174e:	bf00      	nop
 8001750:	2240      	movs	r2, #64	@ 0x40
 8001752:	4b03      	ldr	r3, [pc, #12]	@ (8001760 <_ZN3i2c11I2c400KHzSw6TxByteEhb+0xd4>)
 8001754:	611a      	str	r2, [r3, #16]
 8001756:	bf00      	nop
 8001758:	615a      	str	r2, [r3, #20]
 800175a:	bf00      	nop
 800175c:	f7ff bf84 	b.w	8001668 <_ZN3i2c11I2c400KHzSw9GetAckBitEb>
 8001760:	40010c00 	.word	0x40010c00

08001764 <_ZN3i2c11I2c400KHzSw6RxByteEv>:
 8001764:	2280      	movs	r2, #128	@ 0x80
 8001766:	4b28      	ldr	r3, [pc, #160]	@ (8001808 <_ZN3i2c11I2c400KHzSw6RxByteEv+0xa4>)
 8001768:	611a      	str	r2, [r3, #16]
 800176a:	bf00      	nop
 800176c:	2240      	movs	r2, #64	@ 0x40
 800176e:	611a      	str	r2, [r3, #16]
 8001770:	bf00      	nop
 8001772:	6898      	ldr	r0, [r3, #8]
 8001774:	615a      	str	r2, [r3, #20]
 8001776:	f000 0080 	and.w	r0, r0, #128	@ 0x80
 800177a:	bf00      	nop
 800177c:	611a      	str	r2, [r3, #16]
 800177e:	bf00      	nop
 8001780:	6899      	ldr	r1, [r3, #8]
 8001782:	615a      	str	r2, [r3, #20]
 8001784:	0609      	lsls	r1, r1, #24
 8001786:	bf48      	it	mi
 8001788:	4310      	orrmi	r0, r2
 800178a:	bf00      	nop
 800178c:	611a      	str	r2, [r3, #16]
 800178e:	bf00      	nop
 8001790:	2240      	movs	r2, #64	@ 0x40
 8001792:	689b      	ldr	r3, [r3, #8]
 8001794:	061b      	lsls	r3, r3, #24
 8001796:	4b1c      	ldr	r3, [pc, #112]	@ (8001808 <_ZN3i2c11I2c400KHzSw6RxByteEv+0xa4>)
 8001798:	bf48      	it	mi
 800179a:	f040 0020 	orrmi.w	r0, r0, #32
 800179e:	615a      	str	r2, [r3, #20]
 80017a0:	bf00      	nop
 80017a2:	611a      	str	r2, [r3, #16]
 80017a4:	bf00      	nop
 80017a6:	6899      	ldr	r1, [r3, #8]
 80017a8:	615a      	str	r2, [r3, #20]
 80017aa:	0609      	lsls	r1, r1, #24
 80017ac:	bf48      	it	mi
 80017ae:	f040 0010 	orrmi.w	r0, r0, #16
 80017b2:	bf00      	nop
 80017b4:	611a      	str	r2, [r3, #16]
 80017b6:	bf00      	nop
 80017b8:	2240      	movs	r2, #64	@ 0x40
 80017ba:	689b      	ldr	r3, [r3, #8]
 80017bc:	061b      	lsls	r3, r3, #24
 80017be:	4b12      	ldr	r3, [pc, #72]	@ (8001808 <_ZN3i2c11I2c400KHzSw6RxByteEv+0xa4>)
 80017c0:	bf48      	it	mi
 80017c2:	f040 0008 	orrmi.w	r0, r0, #8
 80017c6:	615a      	str	r2, [r3, #20]
 80017c8:	bf00      	nop
 80017ca:	611a      	str	r2, [r3, #16]
 80017cc:	bf00      	nop
 80017ce:	6899      	ldr	r1, [r3, #8]
 80017d0:	615a      	str	r2, [r3, #20]
 80017d2:	0609      	lsls	r1, r1, #24
 80017d4:	bf48      	it	mi
 80017d6:	f040 0004 	orrmi.w	r0, r0, #4
 80017da:	bf00      	nop
 80017dc:	611a      	str	r2, [r3, #16]
 80017de:	bf00      	nop
 80017e0:	2240      	movs	r2, #64	@ 0x40
 80017e2:	689b      	ldr	r3, [r3, #8]
 80017e4:	061b      	lsls	r3, r3, #24
 80017e6:	4b08      	ldr	r3, [pc, #32]	@ (8001808 <_ZN3i2c11I2c400KHzSw6RxByteEv+0xa4>)
 80017e8:	bf48      	it	mi
 80017ea:	f040 0002 	orrmi.w	r0, r0, #2
 80017ee:	615a      	str	r2, [r3, #20]
 80017f0:	bf00      	nop
 80017f2:	611a      	str	r2, [r3, #16]
 80017f4:	bf00      	nop
 80017f6:	6899      	ldr	r1, [r3, #8]
 80017f8:	615a      	str	r2, [r3, #20]
 80017fa:	0609      	lsls	r1, r1, #24
 80017fc:	bf48      	it	mi
 80017fe:	f040 0001 	orrmi.w	r0, r0, #1
 8001802:	bf00      	nop
 8001804:	4770      	bx	lr
 8001806:	bf00      	nop
 8001808:	40010c00 	.word	0x40010c00

0800180c <_ZN16KeyPressDetector5ResetEv>:
 800180c:	2300      	movs	r3, #0
 800180e:	7003      	strb	r3, [r0, #0]
 8001810:	4770      	bx	lr
	...

08001814 <_ZN16KeyPressDetector6UpdateEv>:
 8001814:	4b03      	ldr	r3, [pc, #12]	@ (8001824 <_ZN16KeyPressDetector6UpdateEv+0x10>)
 8001816:	689b      	ldr	r3, [r3, #8]
 8001818:	079b      	lsls	r3, r3, #30
 800181a:	bf5c      	itt	pl
 800181c:	2301      	movpl	r3, #1
 800181e:	7003      	strbpl	r3, [r0, #0]
 8001820:	4770      	bx	lr
 8001822:	bf00      	nop
 8001824:	40010800 	.word	0x40010800

08001828 <_ZNK16KeyPressDetector10WasPressedEv>:
 8001828:	7800      	ldrb	r0, [r0, #0]
 800182a:	4770      	bx	lr

0800182c <_ZN16KeyPressDetector4InitEv>:
 800182c:	b510      	push	{r4, lr}
 800182e:	4c05      	ldr	r4, [pc, #20]	@ (8001844 <_ZN16KeyPressDetector4InitEv+0x18>)
 8001830:	4620      	mov	r0, r4
 8001832:	f7ff fe47 	bl	80014c4 <_ZN16GpioConfigurator15GpioClockEnableEP12GPIO_TypeDef>
 8001836:	4620      	mov	r0, r4
 8001838:	e8bd 4010 	ldmia.w	sp!, {r4, lr}
 800183c:	2101      	movs	r1, #1
 800183e:	f7ff beab 	b.w	8001598 <_ZN16GpioConfigurator17SetGpioInFloatingEP12GPIO_TypeDefh>
 8001842:	bf00      	nop
 8001844:	40010800 	.word	0x40010800

08001848 <_ZN16KeyPressDetectorC1Ev>:
 8001848:	2300      	movs	r3, #0
 800184a:	b510      	push	{r4, lr}
 800184c:	4604      	mov	r4, r0
 800184e:	7003      	strb	r3, [r0, #0]
 8001850:	f7ff ffec 	bl	800182c <_ZN16KeyPressDetector4InitEv>
 8001854:	4620      	mov	r0, r4
 8001856:	bd10      	pop	{r4, pc}

08001858 <_ZN9LcdScreen5LcdRSEh>:
 8001858:	4a04      	ldr	r2, [pc, #16]	@ (800186c <_ZN9LcdScreen5LcdRSEh+0x14>)
 800185a:	68d3      	ldr	r3, [r2, #12]
 800185c:	b118      	cbz	r0, 8001866 <_ZN9LcdScreen5LcdRSEh+0xe>
 800185e:	f443 6380 	orr.w	r3, r3, #1024	@ 0x400
 8001862:	60d3      	str	r3, [r2, #12]
 8001864:	4770      	bx	lr
 8001866:	f423 6380 	bic.w	r3, r3, #1024	@ 0x400
 800186a:	e7fa      	b.n	8001862 <_ZN9LcdScreen5LcdRSEh+0xa>
 800186c:	40010c00 	.word	0x40010c00

08001870 <_ZN9LcdScreen5LcdRWEh>:
 8001870:	4a04      	ldr	r2, [pc, #16]	@ (8001884 <_ZN9LcdScreen5LcdRWEh+0x14>)
 8001872:	68d3      	ldr	r3, [r2, #12]
 8001874:	b118      	cbz	r0, 800187e <_ZN9LcdScreen5LcdRWEh+0xe>
 8001876:	f443 6300 	orr.w	r3, r3, #2048	@ 0x800
 800187a:	60d3      	str	r3, [r2, #12]
 800187c:	4770      	bx	lr
 800187e:	f423 6300 	bic.w	r3, r3, #2048	@ 0x800
 8001882:	e7fa      	b.n	800187a <_ZN9LcdScreen5LcdRWEh+0xa>
 8001884:	40010c00 	.word	0x40010c00

08001888 <_ZN9LcdScreen4LcdEEh>:
 8001888:	4a04      	ldr	r2, [pc, #16]	@ (800189c <_ZN9LcdScreen4LcdEEh+0x14>)
 800188a:	68d3      	ldr	r3, [r2, #12]
 800188c:	b118      	cbz	r0, 8001896 <_ZN9LcdScreen4LcdEEh+0xe>
 800188e:	f443 5380 	orr.w	r3, r3, #4096	@ 0x1000
 8001892:	60d3      	str	r3, [r2, #12]
 8001894:	4770      	bx	lr
 8001896:	f423 5380 	bic.w	r3, r3, #4096	@ 0x1000
 800189a:	e7fa      	b.n	8001892 <_ZN9LcdScreen4LcdEEh+0xa>
 800189c:	40010c00 	.word	0x40010c00

080018a0 <_ZN9LcdScreen11LcdOut4bitsEh>:
 80018a0:	490b      	ldr	r1, [pc, #44]	@ (80018d0 <_ZN9LcdScreen11LcdOut4bitsEh+0x30>)
 80018a2:	f000 0308 	and.w	r3, r0, #8
 80018a6:	68ca      	ldr	r2, [r1, #12]
 80018a8:	f422 4260 	bic.w	r2, r2, #57344	@ 0xe000
 80018ac:	f022 0208 	bic.w	r2, r2, #8
 80018b0:	4313      	orrs	r3, r2
 80018b2:	0342      	lsls	r2, r0, #13
 80018b4:	f402 5200 	and.w	r2, r2, #8192	@ 0x2000
 80018b8:	4313      	orrs	r3, r2
 80018ba:	0382      	lsls	r2, r0, #14
 80018bc:	f402 4200 	and.w	r2, r2, #32768	@ 0x8000
 80018c0:	0300      	lsls	r0, r0, #12
 80018c2:	4313      	orrs	r3, r2
 80018c4:	f400 4080 	and.w	r0, r0, #16384	@ 0x4000
 80018c8:	4318      	orrs	r0, r3
 80018ca:	60c8      	str	r0, [r1, #12]
 80018cc:	4770      	bx	lr
 80018ce:	bf00      	nop
 80018d0:	40010c00 	.word	0x40010c00

080018d4 <_ZN9LcdScreen10LcdIn4bitsEv>:
 80018d4:	4b07      	ldr	r3, [pc, #28]	@ (80018f4 <_ZN9LcdScreen10LcdIn4bitsEv+0x20>)
 80018d6:	689b      	ldr	r3, [r3, #8]
 80018d8:	0b9a      	lsrs	r2, r3, #14
 80018da:	f3c3 3040 	ubfx	r0, r3, #13, #1
 80018de:	f002 0202 	and.w	r2, r2, #2
 80018e2:	4310      	orrs	r0, r2
 80018e4:	f003 0208 	and.w	r2, r3, #8
 80018e8:	0b1b      	lsrs	r3, r3, #12
 80018ea:	4310      	orrs	r0, r2
 80018ec:	f003 0304 	and.w	r3, r3, #4
 80018f0:	4318      	orrs	r0, r3
 80018f2:	4770      	bx	lr
 80018f4:	40010c00 	.word	0x40010c00

080018f8 <_ZN9LcdScreen13LcdSetDataOutEv>:
 80018f8:	b510      	push	{r4, lr}
 80018fa:	4c09      	ldr	r4, [pc, #36]	@ (8001920 <_ZN9LcdScreen13LcdSetDataOutEv+0x28>)
 80018fc:	210d      	movs	r1, #13
 80018fe:	4620      	mov	r0, r4
 8001900:	f7ff fe0c 	bl	800151c <_ZN16GpioConfigurator18SetGpioOutPushPullEP12GPIO_TypeDefh>
 8001904:	4620      	mov	r0, r4
 8001906:	210f      	movs	r1, #15
 8001908:	f7ff fe08 	bl	800151c <_ZN16GpioConfigurator18SetGpioOutPushPullEP12GPIO_TypeDefh>
 800190c:	4620      	mov	r0, r4
 800190e:	210e      	movs	r1, #14
 8001910:	f7ff fe04 	bl	800151c <_ZN16GpioConfigurator18SetGpioOutPushPullEP12GPIO_TypeDefh>
 8001914:	4620      	mov	r0, r4
 8001916:	e8bd 4010 	ldmia.w	sp!, {r4, lr}
 800191a:	2103      	movs	r1, #3
 800191c:	f7ff bdfe 	b.w	800151c <_ZN16GpioConfigurator18SetGpioOutPushPullEP12GPIO_TypeDefh>
 8001920:	40010c00 	.word	0x40010c00

08001924 <_ZN9LcdScreen12LcdSetDataInEv>:
 8001924:	b510      	push	{r4, lr}
 8001926:	4c09      	ldr	r4, [pc, #36]	@ (800194c <_ZN9LcdScreen12LcdSetDataInEv+0x28>)
 8001928:	210d      	movs	r1, #13
 800192a:	4620      	mov	r0, r4
 800192c:	f7ff fe34 	bl	8001598 <_ZN16GpioConfigurator17SetGpioInFloatingEP12GPIO_TypeDefh>
 8001930:	4620      	mov	r0, r4
 8001932:	210f      	movs	r1, #15
 8001934:	f7ff fe30 	bl	8001598 <_ZN16GpioConfigurator17SetGpioInFloatingEP12GPIO_TypeDefh>
 8001938:	4620      	mov	r0, r4
 800193a:	210e      	movs	r1, #14
 800193c:	f7ff fe2c 	bl	8001598 <_ZN16GpioConfigurator17SetGpioInFloatingEP12GPIO_TypeDefh>
 8001940:	4620      	mov	r0, r4
 8001942:	e8bd 4010 	ldmia.w	sp!, {r4, lr}
 8001946:	2103      	movs	r1, #3
 8001948:	f7ff be26 	b.w	8001598 <_ZN16GpioConfigurator17SetGpioInFloatingEP12GPIO_TypeDefh>
 800194c:	40010c00 	.word	0x40010c00

08001950 <_ZN9LcdScreen15Lcd4BitWideReadEhh>:
 8001950:	b538      	push	{r3, r4, r5, lr}
 8001952:	4605      	mov	r5, r0
 8001954:	460c      	mov	r4, r1
 8001956:	f7ff ffe5 	bl	8001924 <_ZN9LcdScreen12LcdSetDataInEv>
 800195a:	4628      	mov	r0, r5
 800195c:	f7ff ff7c 	bl	8001858 <_ZN9LcdScreen5LcdRSEh>
 8001960:	4620      	mov	r0, r4
 8001962:	f7ff ff85 	bl	8001870 <_ZN9LcdScreen5LcdRWEh>
 8001966:	2001      	movs	r0, #1
 8001968:	f7ff ff8e 	bl	8001888 <_ZN9LcdScreen4LcdEEh>
 800196c:	f7ff fd46 	bl	80013fc <_ZN10DelayTimer13DelayMicroSecEt>
 8001970:	f7ff ffb0 	bl	80018d4 <_ZN9LcdScreen10LcdIn4bitsEv>
 8001974:	0104      	lsls	r4, r0, #4
 8001976:	2000      	movs	r0, #0
 8001978:	f7ff ff86 	bl	8001888 <_ZN9LcdScreen4LcdEEh>
 800197c:	2001      	movs	r0, #1
 800197e:	f7ff fd3d 	bl	80013fc <_ZN10DelayTimer13DelayMicroSecEt>
 8001982:	2001      	movs	r0, #1
 8001984:	f7ff ff80 	bl	8001888 <_ZN9LcdScreen4LcdEEh>
 8001988:	f7ff fd38 	bl	80013fc <_ZN10DelayTimer13DelayMicroSecEt>
 800198c:	f7ff ffa2 	bl	80018d4 <_ZN9LcdScreen10LcdIn4bitsEv>
 8001990:	b2e4      	uxtb	r4, r4
 8001992:	4404      	add	r4, r0
 8001994:	2000      	movs	r0, #0
 8001996:	f7ff ff77 	bl	8001888 <_ZN9LcdScreen4LcdEEh>
 800199a:	b2e4      	uxtb	r4, r4
 800199c:	2001      	movs	r0, #1
 800199e:	f7ff fd2d 	bl	80013fc <_ZN10DelayTimer13DelayMicroSecEt>
 80019a2:	4620      	mov	r0, r4
 80019a4:	bd38      	pop	{r3, r4, r5, pc}

080019a6 <_ZN9LcdScreen6IsBusyEv>:
 80019a6:	2101      	movs	r1, #1
 80019a8:	b508      	push	{r3, lr}
 80019aa:	2000      	movs	r0, #0
 80019ac:	f7ff ffd0 	bl	8001950 <_ZN9LcdScreen15Lcd4BitWideReadEhh>
 80019b0:	f3c0 10c0 	ubfx	r0, r0, #7, #1
 80019b4:	bd08      	pop	{r3, pc}

080019b6 <_ZN9LcdScreen16Lcd4BitWideWriteEhhh>:
 80019b6:	b510      	push	{r4, lr}
 80019b8:	4614      	mov	r4, r2
 80019ba:	f7ff ff4d 	bl	8001858 <_ZN9LcdScreen5LcdRSEh>
 80019be:	4608      	mov	r0, r1
 80019c0:	f7ff ff56 	bl	8001870 <_ZN9LcdScreen5LcdRWEh>
 80019c4:	2001      	movs	r0, #1
 80019c6:	f7ff ff5f 	bl	8001888 <_ZN9LcdScreen4LcdEEh>
 80019ca:	f7ff ff95 	bl	80018f8 <_ZN9LcdScreen13LcdSetDataOutEv>
 80019ce:	0920      	lsrs	r0, r4, #4
 80019d0:	f7ff ff66 	bl	80018a0 <_ZN9LcdScreen11LcdOut4bitsEh>
 80019d4:	2001      	movs	r0, #1
 80019d6:	f7ff fd11 	bl	80013fc <_ZN10DelayTimer13DelayMicroSecEt>
 80019da:	2000      	movs	r0, #0
 80019dc:	f7ff ff54 	bl	8001888 <_ZN9LcdScreen4LcdEEh>
 80019e0:	2001      	movs	r0, #1
 80019e2:	f7ff fd0b 	bl	80013fc <_ZN10DelayTimer13DelayMicroSecEt>
 80019e6:	2001      	movs	r0, #1
 80019e8:	f7ff ff4e 	bl	8001888 <_ZN9LcdScreen4LcdEEh>
 80019ec:	f004 000f 	and.w	r0, r4, #15
 80019f0:	f7ff ff56 	bl	80018a0 <_ZN9LcdScreen11LcdOut4bitsEh>
 80019f4:	2001      	movs	r0, #1
 80019f6:	f7ff fd01 	bl	80013fc <_ZN10DelayTimer13DelayMicroSecEt>
 80019fa:	2000      	movs	r0, #0
 80019fc:	f7ff ff44 	bl	8001888 <_ZN9LcdScreen4LcdEEh>
 8001a00:	2001      	movs	r0, #1
 8001a02:	f7ff fcfb 	bl	80013fc <_ZN10DelayTimer13DelayMicroSecEt>
 8001a06:	e8bd 4010 	ldmia.w	sp!, {r4, lr}
 8001a0a:	f7ff bf8b 	b.w	8001924 <_ZN9LcdScreen12LcdSetDataInEv>

08001a0e <_ZN9LcdScreen20Lcd8BitWideFakeWriteEhhh>:
 8001a0e:	b510      	push	{r4, lr}
 8001a10:	4614      	mov	r4, r2
 8001a12:	f7ff ff21 	bl	8001858 <_ZN9LcdScreen5LcdRSEh>
 8001a16:	4608      	mov	r0, r1
 8001a18:	f7ff ff2a 	bl	8001870 <_ZN9LcdScreen5LcdRWEh>
 8001a1c:	2001      	movs	r0, #1
 8001a1e:	f7ff ff33 	bl	8001888 <_ZN9LcdScreen4LcdEEh>
 8001a22:	f7ff ff69 	bl	80018f8 <_ZN9LcdScreen13LcdSetDataOutEv>
 8001a26:	0920      	lsrs	r0, r4, #4
 8001a28:	f7ff ff3a 	bl	80018a0 <_ZN9LcdScreen11LcdOut4bitsEh>
 8001a2c:	2001      	movs	r0, #1
 8001a2e:	f7ff fce5 	bl	80013fc <_ZN10DelayTimer13DelayMicroSecEt>
 8001a32:	2000      	movs	r0, #0
 8001a34:	f7ff ff28 	bl	8001888 <_ZN9LcdScreen4LcdEEh>
 8001a38:	2001      	movs	r0, #1
 8001a3a:	f7ff fcdf 	bl	80013fc <_ZN10DelayTimer13DelayMicroSecEt>
 8001a3e:	e8bd 4010 	ldmia.w	sp!, {r4, lr}
 8001a42:	f7ff bf6f 	b.w	8001924 <_ZN9LcdScreen12LcdSetDataInEv>

08001a46 <_ZN9LcdScreen11WaitForBusyEv>:
 8001a46:	b508      	push	{r3, lr}
 8001a48:	f7ff ffad 	bl	80019a6 <_ZN9LcdScreen6IsBusyEv>
 8001a4c:	2800      	cmp	r0, #0
 8001a4e:	d1fb      	bne.n	8001a48 <_ZN9LcdScreen11WaitForBusyEv+0x2>
 8001a50:	bd08      	pop	{r3, pc}
	...

08001a54 <_ZN9LcdScreen7LcdInitEv>:
 8001a54:	b510      	push	{r4, lr}
 8001a56:	4c3d      	ldr	r4, [pc, #244]	@ (8001b4c <_ZN9LcdScreen7LcdInitEv+0xf8>)
 8001a58:	4620      	mov	r0, r4
 8001a5a:	f7ff fd33 	bl	80014c4 <_ZN16GpioConfigurator15GpioClockEnableEP12GPIO_TypeDef>
 8001a5e:	4a3c      	ldr	r2, [pc, #240]	@ (8001b50 <_ZN9LcdScreen7LcdInitEv+0xfc>)
 8001a60:	2000      	movs	r0, #0
 8001a62:	6853      	ldr	r3, [r2, #4]
 8001a64:	f023 63e0 	bic.w	r3, r3, #117440512	@ 0x7000000
 8001a68:	f043 7300 	orr.w	r3, r3, #33554432	@ 0x2000000
 8001a6c:	6053      	str	r3, [r2, #4]
 8001a6e:	f7ff fef3 	bl	8001858 <_ZN9LcdScreen5LcdRSEh>
 8001a72:	f7ff fefd 	bl	8001870 <_ZN9LcdScreen5LcdRWEh>
 8001a76:	f7ff ff07 	bl	8001888 <_ZN9LcdScreen4LcdEEh>
 8001a7a:	f7ff ff11 	bl	80018a0 <_ZN9LcdScreen11LcdOut4bitsEh>
 8001a7e:	4620      	mov	r0, r4
 8001a80:	210a      	movs	r1, #10
 8001a82:	f7ff fd4b 	bl	800151c <_ZN16GpioConfigurator18SetGpioOutPushPullEP12GPIO_TypeDefh>
 8001a86:	4620      	mov	r0, r4
 8001a88:	210b      	movs	r1, #11
 8001a8a:	f7ff fd47 	bl	800151c <_ZN16GpioConfigurator18SetGpioOutPushPullEP12GPIO_TypeDefh>
 8001a8e:	210c      	movs	r1, #12
 8001a90:	4620      	mov	r0, r4
 8001a92:	f7ff fd43 	bl	800151c <_ZN16GpioConfigurator18SetGpioOutPushPullEP12GPIO_TypeDefh>
 8001a96:	f7ff ff2f 	bl	80018f8 <_ZN9LcdScreen13LcdSetDataOutEv>
 8001a9a:	f649 4040 	movw	r0, #40000	@ 0x9c40
 8001a9e:	f7ff fcad 	bl	80013fc <_ZN10DelayTimer13DelayMicroSecEt>
 8001aa2:	2100      	movs	r1, #0
 8001aa4:	2230      	movs	r2, #48	@ 0x30
 8001aa6:	4608      	mov	r0, r1
 8001aa8:	f7ff ffb1 	bl	8001a0e <_ZN9LcdScreen20Lcd8BitWideFakeWriteEhhh>
 8001aac:	f241 0004 	movw	r0, #4100	@ 0x1004
 8001ab0:	f7ff fca4 	bl	80013fc <_ZN10DelayTimer13DelayMicroSecEt>
 8001ab4:	2100      	movs	r1, #0
 8001ab6:	2230      	movs	r2, #48	@ 0x30
 8001ab8:	4608      	mov	r0, r1
 8001aba:	f7ff ffa8 	bl	8001a0e <_ZN9LcdScreen20Lcd8BitWideFakeWriteEhhh>
 8001abe:	2064      	movs	r0, #100	@ 0x64
 8001ac0:	f7ff fc9c 	bl	80013fc <_ZN10DelayTimer13DelayMicroSecEt>
 8001ac4:	2100      	movs	r1, #0
 8001ac6:	2230      	movs	r2, #48	@ 0x30
 8001ac8:	4608      	mov	r0, r1
 8001aca:	f7ff ffa0 	bl	8001a0e <_ZN9LcdScreen20Lcd8BitWideFakeWriteEhhh>
 8001ace:	2064      	movs	r0, #100	@ 0x64
 8001ad0:	f7ff fc94 	bl	80013fc <_ZN10DelayTimer13DelayMicroSecEt>
 8001ad4:	2100      	movs	r1, #0
 8001ad6:	2220      	movs	r2, #32
 8001ad8:	4608      	mov	r0, r1
 8001ada:	f7ff ff98 	bl	8001a0e <_ZN9LcdScreen20Lcd8BitWideFakeWriteEhhh>
 8001ade:	2064      	movs	r0, #100	@ 0x64
 8001ae0:	f7ff fc8c 	bl	80013fc <_ZN10DelayTimer13DelayMicroSecEt>
 8001ae4:	2100      	movs	r1, #0
 8001ae6:	2228      	movs	r2, #40	@ 0x28
 8001ae8:	4608      	mov	r0, r1
 8001aea:	f7ff ff64 	bl	80019b6 <_ZN9LcdScreen16Lcd4BitWideWriteEhhh>
 8001aee:	2027      	movs	r0, #39	@ 0x27
 8001af0:	f7ff fc84 	bl	80013fc <_ZN10DelayTimer13DelayMicroSecEt>
 8001af4:	2100      	movs	r1, #0
 8001af6:	2228      	movs	r2, #40	@ 0x28
 8001af8:	4608      	mov	r0, r1
 8001afa:	f7ff ff5c 	bl	80019b6 <_ZN9LcdScreen16Lcd4BitWideWriteEhhh>
 8001afe:	f7ff ffa2 	bl	8001a46 <_ZN9LcdScreen11WaitForBusyEv>
 8001b02:	2027      	movs	r0, #39	@ 0x27
 8001b04:	f7ff fc7a 	bl	80013fc <_ZN10DelayTimer13DelayMicroSecEt>
 8001b08:	2100      	movs	r1, #0
 8001b0a:	220c      	movs	r2, #12
 8001b0c:	4608      	mov	r0, r1
 8001b0e:	f7ff ff52 	bl	80019b6 <_ZN9LcdScreen16Lcd4BitWideWriteEhhh>
 8001b12:	f7ff ff98 	bl	8001a46 <_ZN9LcdScreen11WaitForBusyEv>
 8001b16:	2027      	movs	r0, #39	@ 0x27
 8001b18:	f7ff fc70 	bl	80013fc <_ZN10DelayTimer13DelayMicroSecEt>
 8001b1c:	2100      	movs	r1, #0
 8001b1e:	2201      	movs	r2, #1
 8001b20:	4608      	mov	r0, r1
 8001b22:	f7ff ff48 	bl	80019b6 <_ZN9LcdScreen16Lcd4BitWideWriteEhhh>
 8001b26:	f7ff ff8e 	bl	8001a46 <_ZN9LcdScreen11WaitForBusyEv>
 8001b2a:	f240 50fa 	movw	r0, #1530	@ 0x5fa
 8001b2e:	f7ff fc65 	bl	80013fc <_ZN10DelayTimer13DelayMicroSecEt>
 8001b32:	2100      	movs	r1, #0
 8001b34:	2206      	movs	r2, #6
 8001b36:	4608      	mov	r0, r1
 8001b38:	f7ff ff3d 	bl	80019b6 <_ZN9LcdScreen16Lcd4BitWideWriteEhhh>
 8001b3c:	2027      	movs	r0, #39	@ 0x27
 8001b3e:	f7ff fc5d 	bl	80013fc <_ZN10DelayTimer13DelayMicroSecEt>
 8001b42:	e8bd 4010 	ldmia.w	sp!, {r4, lr}
 8001b46:	f7ff bf7e 	b.w	8001a46 <_ZN9LcdScreen11WaitForBusyEv>
 8001b4a:	bf00      	nop
 8001b4c:	40010c00 	.word	0x40010c00
 8001b50:	40010000 	.word	0x40010000

08001b54 <_ZN9LcdScreen8LcdClearEv>:
 8001b54:	b508      	push	{r3, lr}
 8001b56:	f7ff ff76 	bl	8001a46 <_ZN9LcdScreen11WaitForBusyEv>
 8001b5a:	2100      	movs	r1, #0
 8001b5c:	2201      	movs	r2, #1
 8001b5e:	4608      	mov	r0, r1
 8001b60:	f7ff ff29 	bl	80019b6 <_ZN9LcdScreen16Lcd4BitWideWriteEhhh>
 8001b64:	e8bd 4008 	ldmia.w	sp!, {r3, lr}
 8001b68:	2027      	movs	r0, #39	@ 0x27
 8001b6a:	f7ff bc47 	b.w	80013fc <_ZN10DelayTimer13DelayMicroSecEt>

08001b6e <_ZN9LcdScreen8LcdToPosEhh>:
 8001b6e:	b538      	push	{r3, r4, r5, lr}
 8001b70:	460d      	mov	r5, r1
 8001b72:	4604      	mov	r4, r0
 8001b74:	f7ff ff67 	bl	8001a46 <_ZN9LcdScreen11WaitForBusyEv>
 8001b78:	2100      	movs	r1, #0
 8001b7a:	eb05 0585 	add.w	r5, r5, r5, lsl #2
 8001b7e:	eb04 02c5 	add.w	r2, r4, r5, lsl #3
 8001b82:	f062 027f 	orn	r2, r2, #127	@ 0x7f
 8001b86:	4608      	mov	r0, r1
 8001b88:	b2d2      	uxtb	r2, r2
 8001b8a:	f7ff ff14 	bl	80019b6 <_ZN9LcdScreen16Lcd4BitWideWriteEhhh>
 8001b8e:	e8bd 4038 	ldmia.w	sp!, {r3, r4, r5, lr}
 8001b92:	2027      	movs	r0, #39	@ 0x27
 8001b94:	f7ff bc32 	b.w	80013fc <_ZN10DelayTimer13DelayMicroSecEt>

08001b98 <_ZN9LcdScreen12LcdPrintCharEh>:
 8001b98:	b510      	push	{r4, lr}
 8001b9a:	4604      	mov	r4, r0
 8001b9c:	f7ff ff53 	bl	8001a46 <_ZN9LcdScreen11WaitForBusyEv>
 8001ba0:	4622      	mov	r2, r4
 8001ba2:	2001      	movs	r0, #1
 8001ba4:	2100      	movs	r1, #0
 8001ba6:	f7ff ff06 	bl	80019b6 <_ZN9LcdScreen16Lcd4BitWideWriteEhhh>
 8001baa:	e8bd 4010 	ldmia.w	sp!, {r4, lr}
 8001bae:	202b      	movs	r0, #43	@ 0x2b
 8001bb0:	f7ff bc24 	b.w	80013fc <_ZN10DelayTimer13DelayMicroSecEt>

08001bb4 <_ZN9LcdScreen8LcdPrintEPc>:
 8001bb4:	b510      	push	{r4, lr}
 8001bb6:	1e44      	subs	r4, r0, #1
 8001bb8:	f814 0f01 	ldrb.w	r0, [r4, #1]!
 8001bbc:	b900      	cbnz	r0, 8001bc0 <_ZN9LcdScreen8LcdPrintEPc+0xc>
 8001bbe:	bd10      	pop	{r4, pc}
 8001bc0:	f7ff ffea 	bl	8001b98 <_ZN9LcdScreen12LcdPrintCharEh>
 8001bc4:	e7f8      	b.n	8001bb8 <_ZN9LcdScreen8LcdPrintEPc+0x4>
	...

08001bc8 <_ZN9LcdScreen14LcdPrintNumberEhb>:
 8001bc8:	b573      	push	{r0, r1, r4, r5, r6, lr}
 8001bca:	4b19      	ldr	r3, [pc, #100]	@ (8001c30 <_ZN9LcdScreen14LcdPrintNumberEhb+0x68>)
 8001bcc:	460d      	mov	r5, r1
 8001bce:	881a      	ldrh	r2, [r3, #0]
 8001bd0:	789b      	ldrb	r3, [r3, #2]
 8001bd2:	f8ad 2004 	strh.w	r2, [sp, #4]
 8001bd6:	f88d 3006 	strb.w	r3, [sp, #6]
 8001bda:	b1b0      	cbz	r0, 8001c0a <_ZN9LcdScreen14LcdPrintNumberEhb+0x42>
 8001bdc:	210a      	movs	r1, #10
 8001bde:	fbb0 f3f1 	udiv	r3, r0, r1
 8001be2:	fb01 0213 	mls	r2, r1, r3, r0
 8001be6:	2809      	cmp	r0, #9
 8001be8:	f102 0230 	add.w	r2, r2, #48	@ 0x30
 8001bec:	f88d 2006 	strb.w	r2, [sp, #6]
 8001bf0:	b2db      	uxtb	r3, r3
 8001bf2:	d90a      	bls.n	8001c0a <_ZN9LcdScreen14LcdPrintNumberEhb+0x42>
 8001bf4:	fbb3 f2f1 	udiv	r2, r3, r1
 8001bf8:	fb01 3312 	mls	r3, r1, r2, r3
 8001bfc:	2863      	cmp	r0, #99	@ 0x63
 8001bfe:	f103 0330 	add.w	r3, r3, #48	@ 0x30
 8001c02:	f88d 3005 	strb.w	r3, [sp, #5]
 8001c06:	b2d2      	uxtb	r2, r2
 8001c08:	d80e      	bhi.n	8001c28 <_ZN9LcdScreen14LcdPrintNumberEhb+0x60>
 8001c0a:	2403      	movs	r4, #3
 8001c0c:	ae01      	add	r6, sp, #4
 8001c0e:	f816 0b01 	ldrb.w	r0, [r6], #1
 8001c12:	b10d      	cbz	r5, 8001c18 <_ZN9LcdScreen14LcdPrintNumberEhb+0x50>
 8001c14:	2820      	cmp	r0, #32
 8001c16:	d001      	beq.n	8001c1c <_ZN9LcdScreen14LcdPrintNumberEhb+0x54>
 8001c18:	f7ff ffbe 	bl	8001b98 <_ZN9LcdScreen12LcdPrintCharEh>
 8001c1c:	3c01      	subs	r4, #1
 8001c1e:	f014 04ff 	ands.w	r4, r4, #255	@ 0xff
 8001c22:	d1f4      	bne.n	8001c0e <_ZN9LcdScreen14LcdPrintNumberEhb+0x46>
 8001c24:	b002      	add	sp, #8
 8001c26:	bd70      	pop	{r4, r5, r6, pc}
 8001c28:	3230      	adds	r2, #48	@ 0x30
 8001c2a:	f88d 2004 	strb.w	r2, [sp, #4]
 8001c2e:	e7ec      	b.n	8001c0a <_ZN9LcdScreen14LcdPrintNumberEhb+0x42>
 8001c30:	08002272 	.word	0x08002272

08001c34 <_ZN9LcdScreen14LcdPrintNumberEtb>:
 8001c34:	b573      	push	{r0, r1, r4, r5, r6, lr}
 8001c36:	4603      	mov	r3, r0
 8001c38:	466a      	mov	r2, sp
 8001c3a:	460e      	mov	r6, r1
 8001c3c:	4912      	ldr	r1, [pc, #72]	@ (8001c88 <_ZN9LcdScreen14LcdPrintNumberEtb+0x54>)
 8001c3e:	6808      	ldr	r0, [r1, #0]
 8001c40:	7909      	ldrb	r1, [r1, #4]
 8001c42:	9000      	str	r0, [sp, #0]
 8001c44:	7111      	strb	r1, [r2, #4]
 8001c46:	4618      	mov	r0, r3
 8001c48:	b17b      	cbz	r3, 8001c6a <_ZN9LcdScreen14LcdPrintNumberEtb+0x36>
 8001c4a:	250a      	movs	r5, #10
 8001c4c:	f10d 0305 	add.w	r3, sp, #5
 8001c50:	fbb0 f4f5 	udiv	r4, r0, r5
 8001c54:	fb05 0114 	mls	r1, r5, r4, r0
 8001c58:	3130      	adds	r1, #48	@ 0x30
 8001c5a:	f803 1d01 	strb.w	r1, [r3, #-1]!
 8001c5e:	4293      	cmp	r3, r2
 8001c60:	4601      	mov	r1, r0
 8001c62:	b2a0      	uxth	r0, r4
 8001c64:	d001      	beq.n	8001c6a <_ZN9LcdScreen14LcdPrintNumberEtb+0x36>
 8001c66:	2909      	cmp	r1, #9
 8001c68:	d8f2      	bhi.n	8001c50 <_ZN9LcdScreen14LcdPrintNumberEtb+0x1c>
 8001c6a:	4614      	mov	r4, r2
 8001c6c:	2505      	movs	r5, #5
 8001c6e:	f814 0b01 	ldrb.w	r0, [r4], #1
 8001c72:	b10e      	cbz	r6, 8001c78 <_ZN9LcdScreen14LcdPrintNumberEtb+0x44>
 8001c74:	2820      	cmp	r0, #32
 8001c76:	d001      	beq.n	8001c7c <_ZN9LcdScreen14LcdPrintNumberEtb+0x48>
 8001c78:	f7ff ff8e 	bl	8001b98 <_ZN9LcdScreen12LcdPrintCharEh>
 8001c7c:	3d01      	subs	r5, #1
 8001c7e:	f015 05ff 	ands.w	r5, r5, #255	@ 0xff
 8001c82:	d1f4      	bne.n	8001c6e <_ZN9LcdScreen14LcdPrintNumberEtb+0x3a>
 8001c84:	b002      	add	sp, #8
 8001c86:	bd70      	pop	{r4, r5, r6, pc}
 8001c88:	08002270 	.word	0x08002270

08001c8c <_ZN9LcdScreen14LcdPrintNumberEmb>:
 8001c8c:	b57f      	push	{r0, r1, r2, r3, r4, r5, r6, lr}
 8001c8e:	4603      	mov	r3, r0
 8001c90:	4c14      	ldr	r4, [pc, #80]	@ (8001ce4 <_ZN9LcdScreen14LcdPrintNumberEmb+0x58>)
 8001c92:	460e      	mov	r6, r1
 8001c94:	6820      	ldr	r0, [r4, #0]
 8001c96:	6861      	ldr	r1, [r4, #4]
 8001c98:	aa01      	add	r2, sp, #4
 8001c9a:	c203      	stmia	r2!, {r0, r1}
 8001c9c:	8921      	ldrh	r1, [r4, #8]
 8001c9e:	4618      	mov	r0, r3
 8001ca0:	8011      	strh	r1, [r2, #0]
 8001ca2:	ad01      	add	r5, sp, #4
 8001ca4:	b17b      	cbz	r3, 8001cc6 <_ZN9LcdScreen14LcdPrintNumberEmb+0x3a>
 8001ca6:	240a      	movs	r4, #10
 8001ca8:	f10d 030e 	add.w	r3, sp, #14
 8001cac:	fbb0 f1f4 	udiv	r1, r0, r4
 8001cb0:	fb04 0211 	mls	r2, r4, r1, r0
 8001cb4:	3230      	adds	r2, #48	@ 0x30
 8001cb6:	f803 2d01 	strb.w	r2, [r3, #-1]!
 8001cba:	42ab      	cmp	r3, r5
 8001cbc:	4602      	mov	r2, r0
 8001cbe:	4608      	mov	r0, r1
 8001cc0:	d001      	beq.n	8001cc6 <_ZN9LcdScreen14LcdPrintNumberEmb+0x3a>
 8001cc2:	2a09      	cmp	r2, #9
 8001cc4:	d8f2      	bhi.n	8001cac <_ZN9LcdScreen14LcdPrintNumberEmb+0x20>
 8001cc6:	240a      	movs	r4, #10
 8001cc8:	f815 0b01 	ldrb.w	r0, [r5], #1
 8001ccc:	b10e      	cbz	r6, 8001cd2 <_ZN9LcdScreen14LcdPrintNumberEmb+0x46>
 8001cce:	2820      	cmp	r0, #32
 8001cd0:	d001      	beq.n	8001cd6 <_ZN9LcdScreen14LcdPrintNumberEmb+0x4a>
 8001cd2:	f7ff ff61 	bl	8001b98 <_ZN9LcdScreen12LcdPrintCharEh>
 8001cd6:	3c01      	subs	r4, #1
 8001cd8:	f014 04ff 	ands.w	r4, r4, #255	@ 0xff
 8001cdc:	d1f4      	bne.n	8001cc8 <_ZN9LcdScreen14LcdPrintNumberEmb+0x3c>
 8001cde:	b004      	add	sp, #16
 8001ce0:	bd70      	pop	{r4, r5, r6, pc}
 8001ce2:	bf00      	nop
 8001ce4:	0800226b 	.word	0x0800226b

08001ce8 <_ZN12PowerControl9PowerHoldEv>:
 8001ce8:	4803      	ldr	r0, [pc, #12]	@ (8001cf8 <_ZN12PowerControl9PowerHoldEv+0x10>)
 8001cea:	2105      	movs	r1, #5
 8001cec:	6903      	ldr	r3, [r0, #16]
 8001cee:	f043 0320 	orr.w	r3, r3, #32
 8001cf2:	6103      	str	r3, [r0, #16]
 8001cf4:	f7ff bc12 	b.w	800151c <_ZN16GpioConfigurator18SetGpioOutPushPullEP12GPIO_TypeDefh>
 8001cf8:	40010800 	.word	0x40010800

08001cfc <_ZN12PowerControl11PowerUnholdEv>:
 8001cfc:	4803      	ldr	r0, [pc, #12]	@ (8001d0c <_ZN12PowerControl11PowerUnholdEv+0x10>)
 8001cfe:	2105      	movs	r1, #5
 8001d00:	6943      	ldr	r3, [r0, #20]
 8001d02:	f043 0320 	orr.w	r3, r3, #32
 8001d06:	6143      	str	r3, [r0, #20]
 8001d08:	f7ff bc46 	b.w	8001598 <_ZN16GpioConfigurator17SetGpioInFloatingEP12GPIO_TypeDefh>
 8001d0c:	40010800 	.word	0x40010800

08001d10 <_ZN12PowerControl4InitEv>:
 8001d10:	b538      	push	{r3, r4, r5, lr}
 8001d12:	4604      	mov	r4, r0
 8001d14:	4d06      	ldr	r5, [pc, #24]	@ (8001d30 <_ZN12PowerControl4InitEv+0x20>)
 8001d16:	4628      	mov	r0, r5
 8001d18:	f7ff fbd4 	bl	80014c4 <_ZN16GpioConfigurator15GpioClockEnableEP12GPIO_TypeDef>
 8001d1c:	4628      	mov	r0, r5
 8001d1e:	2105      	movs	r1, #5
 8001d20:	f7ff fbfc 	bl	800151c <_ZN16GpioConfigurator18SetGpioOutPushPullEP12GPIO_TypeDefh>
 8001d24:	4620      	mov	r0, r4
 8001d26:	e8bd 4038 	ldmia.w	sp!, {r3, r4, r5, lr}
 8001d2a:	f7ff bfe7 	b.w	8001cfc <_ZN12PowerControl11PowerUnholdEv>
 8001d2e:	bf00      	nop
 8001d30:	40010800 	.word	0x40010800

08001d34 <_ZN12PowerControlC1Ev>:
 8001d34:	b510      	push	{r4, lr}
 8001d36:	4604      	mov	r4, r0
 8001d38:	f7ff ffea 	bl	8001d10 <_ZN12PowerControl4InitEv>
 8001d3c:	4620      	mov	r0, r4
 8001d3e:	bd10      	pop	{r4, pc}

08001d40 <_Z10InitClocksv>:
 8001d40:	4a08      	ldr	r2, [pc, #32]	@ (8001d64 <_Z10InitClocksv+0x24>)
 8001d42:	6813      	ldr	r3, [r2, #0]
 8001d44:	f023 7386 	bic.w	r3, r3, #17563648	@ 0x10c0000
 8001d48:	f423 3380 	bic.w	r3, r3, #65536	@ 0x10000
 8001d4c:	f443 3380 	orr.w	r3, r3, #65536	@ 0x10000
 8001d50:	6013      	str	r3, [r2, #0]
 8001d52:	6851      	ldr	r1, [r2, #4]
 8001d54:	4b04      	ldr	r3, [pc, #16]	@ (8001d68 <_Z10InitClocksv+0x28>)
 8001d56:	400b      	ands	r3, r1
 8001d58:	f043 6380 	orr.w	r3, r3, #67108864	@ 0x4000000
 8001d5c:	f043 03a0 	orr.w	r3, r3, #160	@ 0xa0
 8001d60:	6053      	str	r3, [r2, #4]
 8001d62:	4770      	bx	lr
 8001d64:	40021000 	.word	0x40021000
 8001d68:	f8ffc0fc 	.word	0xf8ffc0fc

08001d6c <_Z33ALTERNATIVE_FUNCTION_CLOCK_ENABLEv>:
 8001d6c:	4a02      	ldr	r2, [pc, #8]	@ (8001d78 <_Z33ALTERNATIVE_FUNCTION_CLOCK_ENABLEv+0xc>)
 8001d6e:	6993      	ldr	r3, [r2, #24]
 8001d70:	f043 0301 	orr.w	r3, r3, #1
 8001d74:	6193      	str	r3, [r2, #24]
 8001d76:	4770      	bx	lr
 8001d78:	40021000 	.word	0x40021000

08001d7c <_Z15PA_CLOCK_ENABLEv>:
 8001d7c:	4a02      	ldr	r2, [pc, #8]	@ (8001d88 <_Z15PA_CLOCK_ENABLEv+0xc>)
 8001d7e:	6993      	ldr	r3, [r2, #24]
 8001d80:	f043 0304 	orr.w	r3, r3, #4
 8001d84:	6193      	str	r3, [r2, #24]
 8001d86:	4770      	bx	lr
 8001d88:	40021000 	.word	0x40021000

08001d8c <_Z15PB_CLOCK_ENABLEv>:
 8001d8c:	4a02      	ldr	r2, [pc, #8]	@ (8001d98 <_Z15PB_CLOCK_ENABLEv+0xc>)
 8001d8e:	6993      	ldr	r3, [r2, #24]
 8001d90:	f043 0308 	orr.w	r3, r3, #8
 8001d94:	6193      	str	r3, [r2, #24]
 8001d96:	4770      	bx	lr
 8001d98:	40021000 	.word	0x40021000

08001d9c <_Z15PC_CLOCK_ENABLEv>:
 8001d9c:	4a02      	ldr	r2, [pc, #8]	@ (8001da8 <_Z15PC_CLOCK_ENABLEv+0xc>)
 8001d9e:	6993      	ldr	r3, [r2, #24]
 8001da0:	f043 0310 	orr.w	r3, r3, #16
 8001da4:	6193      	str	r3, [r2, #24]
 8001da6:	4770      	bx	lr
 8001da8:	40021000 	.word	0x40021000

08001dac <_Z9InitPortsv>:
 8001dac:	b508      	push	{r3, lr}
 8001dae:	f7ff ffdd 	bl	8001d6c <_Z33ALTERNATIVE_FUNCTION_CLOCK_ENABLEv>
 8001db2:	f7ff ffe3 	bl	8001d7c <_Z15PA_CLOCK_ENABLEv>
 8001db6:	f7ff ffe9 	bl	8001d8c <_Z15PB_CLOCK_ENABLEv>
 8001dba:	e8bd 4008 	ldmia.w	sp!, {r3, lr}
 8001dbe:	f7ff bfed 	b.w	8001d9c <_Z15PC_CLOCK_ENABLEv>

08001dc2 <_Z21ShowBME280TemperatureRK12BME280Sensor>:
 8001dc2:	b570      	push	{r4, r5, r6, lr}
 8001dc4:	f7ff f84d 	bl	8000e62 <_ZNK12BME280Sensor14GetTemperatureEv>
 8001dc8:	2100      	movs	r1, #0
 8001dca:	4604      	mov	r4, r0
 8001dcc:	4608      	mov	r0, r1
 8001dce:	f7ff fece 	bl	8001b6e <_ZN9LcdScreen8LcdToPosEhh>
 8001dd2:	2c00      	cmp	r4, #0
 8001dd4:	da04      	bge.n	8001de0 <_Z21ShowBME280TemperatureRK12BME280Sensor+0x1e>
 8001dd6:	202d      	movs	r0, #45	@ 0x2d
 8001dd8:	f7ff fede 	bl	8001b98 <_ZN9LcdScreen12LcdPrintCharEh>
 8001ddc:	4264      	negs	r4, r4
 8001dde:	b224      	sxth	r4, r4
 8001de0:	2664      	movs	r6, #100	@ 0x64
 8001de2:	fb94 f5f6 	sdiv	r5, r4, r6
 8001de6:	fb06 4415 	mls	r4, r6, r5, r4
 8001dea:	2101      	movs	r1, #1
 8001dec:	b2e8      	uxtb	r0, r5
 8001dee:	f7ff feeb 	bl	8001bc8 <_ZN9LcdScreen14LcdPrintNumberEhb>
 8001df2:	b2e4      	uxtb	r4, r4
 8001df4:	202e      	movs	r0, #46	@ 0x2e
 8001df6:	f7ff fecf 	bl	8001b98 <_ZN9LcdScreen12LcdPrintCharEh>
 8001dfa:	2c09      	cmp	r4, #9
 8001dfc:	d802      	bhi.n	8001e04 <_Z21ShowBME280TemperatureRK12BME280Sensor+0x42>
 8001dfe:	2030      	movs	r0, #48	@ 0x30
 8001e00:	f7ff feca 	bl	8001b98 <_ZN9LcdScreen12LcdPrintCharEh>
 8001e04:	4620      	mov	r0, r4
 8001e06:	2101      	movs	r1, #1
 8001e08:	f7ff ff40 	bl	8001c8c <_ZN9LcdScreen14LcdPrintNumberEmb>
 8001e0c:	20df      	movs	r0, #223	@ 0xdf
 8001e0e:	f7ff fec3 	bl	8001b98 <_ZN9LcdScreen12LcdPrintCharEh>
 8001e12:	e8bd 4070 	ldmia.w	sp!, {r4, r5, r6, lr}
 8001e16:	2043      	movs	r0, #67	@ 0x43
 8001e18:	f7ff bebe 	b.w	8001b98 <_ZN9LcdScreen12LcdPrintCharEh>
 8001e1c:	0000      	movs	r0, r0
	...

08001e20 <_Z18ShowBME280AltitudeRK12BME280SensorRK14AltitudeMetter>:
 8001e20:	e92d 47ff 	stmdb	sp!, {r0, r1, r2, r3, r4, r5, r6, r7, r8, r9, sl, lr}
 8001e24:	4605      	mov	r5, r0
 8001e26:	460c      	mov	r4, r1
 8001e28:	f7ff f81e 	bl	8000e68 <_ZNK12BME280Sensor11GetPressureEv>
 8001e2c:	0a07      	lsrs	r7, r0, #8
 8001e2e:	4628      	mov	r0, r5
 8001e30:	f7ff f817 	bl	8000e62 <_ZNK12BME280Sensor14GetTemperatureEv>
 8001e34:	2364      	movs	r3, #100	@ 0x64
 8001e36:	fb90 f0f3 	sdiv	r0, r0, r3
 8001e3a:	b200      	sxth	r0, r0
 8001e3c:	2f00      	cmp	r7, #0
 8001e3e:	f000 8087 	beq.w	8001f50 <_Z18ShowBME280AltitudeRK12BME280SensorRK14AltitudeMetter+0x130>
 8001e42:	f7fe fae7 	bl	8000414 <__aeabi_i2d>
 8001e46:	a344      	add	r3, pc, #272	@ (adr r3, 8001f58 <_Z18ShowBME280AltitudeRK12BME280SensorRK14AltitudeMetter+0x138>)
 8001e48:	e9d3 2300 	ldrd	r2, r3, [r3]
 8001e4c:	f7fe fb4c 	bl	80004e8 <__aeabi_dmul>
 8001e50:	2200      	movs	r2, #0
 8001e52:	4b43      	ldr	r3, [pc, #268]	@ (8001f60 <_Z18ShowBME280AltitudeRK12BME280SensorRK14AltitudeMetter+0x140>)
 8001e54:	f7fe f992 	bl	800017c <__adddf3>
 8001e58:	2200      	movs	r2, #0
 8001e5a:	4b42      	ldr	r3, [pc, #264]	@ (8001f64 <_Z18ShowBME280AltitudeRK12BME280SensorRK14AltitudeMetter+0x144>)
 8001e5c:	f7fe fb44 	bl	80004e8 <__aeabi_dmul>
 8001e60:	6826      	ldr	r6, [r4, #0]
 8001e62:	2500      	movs	r5, #0
 8001e64:	2400      	movs	r4, #0
 8001e66:	e9cd 0100 	strd	r0, r1, [sp]
 8001e6a:	4630      	mov	r0, r6
 8001e6c:	f7fe fac2 	bl	80003f4 <__aeabi_ui2d>
 8001e70:	4602      	mov	r2, r0
 8001e72:	460b      	mov	r3, r1
 8001e74:	e9dd 0100 	ldrd	r0, r1, [sp]
 8001e78:	f7fe fc60 	bl	800073c <__aeabi_ddiv>
 8001e7c:	42b7      	cmp	r7, r6
 8001e7e:	4602      	mov	r2, r0
 8001e80:	460b      	mov	r3, r1
 8001e82:	d94a      	bls.n	8001f1a <_Z18ShowBME280AltitudeRK12BME280SensorRK14AltitudeMetter+0xfa>
 8001e84:	eba7 0a06 	sub.w	sl, r7, r6
 8001e88:	f1ba 0f64 	cmp.w	sl, #100	@ 0x64
 8001e8c:	bf28      	it	cs
 8001e8e:	f04f 0a64 	movcs.w	sl, #100	@ 0x64
 8001e92:	4680      	mov	r8, r0
 8001e94:	4650      	mov	r0, sl
 8001e96:	f101 4900 	add.w	r9, r1, #2147483648	@ 0x80000000
 8001e9a:	f7fe faab 	bl	80003f4 <__aeabi_ui2d>
 8001e9e:	4602      	mov	r2, r0
 8001ea0:	460b      	mov	r3, r1
 8001ea2:	4640      	mov	r0, r8
 8001ea4:	4649      	mov	r1, r9
 8001ea6:	f7fe fb1f 	bl	80004e8 <__aeabi_dmul>
 8001eaa:	4602      	mov	r2, r0
 8001eac:	460b      	mov	r3, r1
 8001eae:	4620      	mov	r0, r4
 8001eb0:	4629      	mov	r1, r5
 8001eb2:	f7fe f963 	bl	800017c <__adddf3>
 8001eb6:	4604      	mov	r4, r0
 8001eb8:	460d      	mov	r5, r1
 8001eba:	4456      	add	r6, sl
 8001ebc:	42b7      	cmp	r7, r6
 8001ebe:	d1d4      	bne.n	8001e6a <_Z18ShowBME280AltitudeRK12BME280SensorRK14AltitudeMetter+0x4a>
 8001ec0:	2200      	movs	r2, #0
 8001ec2:	4620      	mov	r0, r4
 8001ec4:	4b28      	ldr	r3, [pc, #160]	@ (8001f68 <_Z18ShowBME280AltitudeRK12BME280SensorRK14AltitudeMetter+0x148>)
 8001ec6:	4629      	mov	r1, r5
 8001ec8:	f7fe fb0e 	bl	80004e8 <__aeabi_dmul>
 8001ecc:	f7fe fd1e 	bl	800090c <__aeabi_d2iz>
 8001ed0:	4604      	mov	r4, r0
 8001ed2:	2101      	movs	r1, #1
 8001ed4:	2000      	movs	r0, #0
 8001ed6:	f7ff fe4a 	bl	8001b6e <_ZN9LcdScreen8LcdToPosEhh>
 8001eda:	2c00      	cmp	r4, #0
 8001edc:	da03      	bge.n	8001ee6 <_Z18ShowBME280AltitudeRK12BME280SensorRK14AltitudeMetter+0xc6>
 8001ede:	202d      	movs	r0, #45	@ 0x2d
 8001ee0:	4264      	negs	r4, r4
 8001ee2:	f7ff fe59 	bl	8001b98 <_ZN9LcdScreen12LcdPrintCharEh>
 8001ee6:	f44f 737a 	mov.w	r3, #1000	@ 0x3e8
 8001eea:	fbb4 f0f3 	udiv	r0, r4, r3
 8001eee:	2101      	movs	r1, #1
 8001ef0:	fb03 4410 	mls	r4, r3, r0, r4
 8001ef4:	b280      	uxth	r0, r0
 8001ef6:	f7ff fe9d 	bl	8001c34 <_ZN9LcdScreen14LcdPrintNumberEtb>
 8001efa:	202e      	movs	r0, #46	@ 0x2e
 8001efc:	f7ff fe4c 	bl	8001b98 <_ZN9LcdScreen12LcdPrintCharEh>
 8001f00:	2064      	movs	r0, #100	@ 0x64
 8001f02:	b2a4      	uxth	r4, r4
 8001f04:	fbb4 f0f0 	udiv	r0, r4, r0
 8001f08:	2101      	movs	r1, #1
 8001f0a:	f7ff fe93 	bl	8001c34 <_ZN9LcdScreen14LcdPrintNumberEtb>
 8001f0e:	206d      	movs	r0, #109	@ 0x6d
 8001f10:	b004      	add	sp, #16
 8001f12:	e8bd 47f0 	ldmia.w	sp!, {r4, r5, r6, r7, r8, r9, sl, lr}
 8001f16:	f7ff be3f 	b.w	8001b98 <_ZN9LcdScreen12LcdPrintCharEh>
 8001f1a:	eba6 0a07 	sub.w	sl, r6, r7
 8001f1e:	f1ba 0f64 	cmp.w	sl, #100	@ 0x64
 8001f22:	bf28      	it	cs
 8001f24:	f04f 0a64 	movcs.w	sl, #100	@ 0x64
 8001f28:	4650      	mov	r0, sl
 8001f2a:	e9cd 2302 	strd	r2, r3, [sp, #8]
 8001f2e:	f7fe fa61 	bl	80003f4 <__aeabi_ui2d>
 8001f32:	e9dd 2302 	ldrd	r2, r3, [sp, #8]
 8001f36:	f7fe fad7 	bl	80004e8 <__aeabi_dmul>
 8001f3a:	4602      	mov	r2, r0
 8001f3c:	460b      	mov	r3, r1
 8001f3e:	4620      	mov	r0, r4
 8001f40:	4629      	mov	r1, r5
 8001f42:	f7fe f91b 	bl	800017c <__adddf3>
 8001f46:	eba6 060a 	sub.w	r6, r6, sl
 8001f4a:	4604      	mov	r4, r0
 8001f4c:	460d      	mov	r5, r1
 8001f4e:	e7b5      	b.n	8001ebc <_Z18ShowBME280AltitudeRK12BME280SensorRK14AltitudeMetter+0x9c>
 8001f50:	4c06      	ldr	r4, [pc, #24]	@ (8001f6c <_Z18ShowBME280AltitudeRK12BME280SensorRK14AltitudeMetter+0x14c>)
 8001f52:	e7be      	b.n	8001ed2 <_Z18ShowBME280AltitudeRK12BME280SensorRK14AltitudeMetter+0xb2>
 8001f54:	f3af 8000 	nop.w
 8001f58:	89b52008 	.word	0x89b52008
 8001f5c:	3f6dfb93 	.word	0x3f6dfb93
 8001f60:	3ff00000 	.word	0x3ff00000
 8001f64:	40bf4000 	.word	0x40bf4000
 8001f68:	408f4000 	.word	0x408f4000
 8001f6c:	fffffd66 	.word	0xfffffd66

08001f70 <_Z18ShowBME280HumidityRK12BME280Sensor>:
 8001f70:	b510      	push	{r4, lr}
 8001f72:	4604      	mov	r4, r0
 8001f74:	2101      	movs	r1, #1
 8001f76:	2000      	movs	r0, #0
 8001f78:	f7ff fdf9 	bl	8001b6e <_ZN9LcdScreen8LcdToPosEhh>
 8001f7c:	4620      	mov	r0, r4
 8001f7e:	f7fe ff75 	bl	8000e6c <_ZNK12BME280Sensor11GetHumidityEv>
 8001f82:	4604      	mov	r4, r0
 8001f84:	f240 33e7 	movw	r3, #999	@ 0x3e7
 8001f88:	f3c4 0409 	ubfx	r4, r4, #0, #10
 8001f8c:	435c      	muls	r4, r3
 8001f8e:	f240 33ff 	movw	r3, #1023	@ 0x3ff
 8001f92:	fbb4 f4f3 	udiv	r4, r4, r3
 8001f96:	230a      	movs	r3, #10
 8001f98:	b2a4      	uxth	r4, r4
 8001f9a:	fbb4 f1f3 	udiv	r1, r4, r3
 8001f9e:	fb03 4211 	mls	r2, r3, r1, r4
 8001fa2:	b292      	uxth	r2, r2
 8001fa4:	2a04      	cmp	r2, #4
 8001fa6:	f3c0 2087 	ubfx	r0, r0, #10, #8
 8001faa:	d814      	bhi.n	8001fd6 <_Z18ShowBME280HumidityRK12BME280Sensor+0x66>
 8001fac:	b28c      	uxth	r4, r1
 8001fae:	2101      	movs	r1, #1
 8001fb0:	f7ff fe0a 	bl	8001bc8 <_ZN9LcdScreen14LcdPrintNumberEhb>
 8001fb4:	202e      	movs	r0, #46	@ 0x2e
 8001fb6:	f7ff fdef 	bl	8001b98 <_ZN9LcdScreen12LcdPrintCharEh>
 8001fba:	2c09      	cmp	r4, #9
 8001fbc:	d802      	bhi.n	8001fc4 <_Z18ShowBME280HumidityRK12BME280Sensor+0x54>
 8001fbe:	2030      	movs	r0, #48	@ 0x30
 8001fc0:	f7ff fdea 	bl	8001b98 <_ZN9LcdScreen12LcdPrintCharEh>
 8001fc4:	4620      	mov	r0, r4
 8001fc6:	2101      	movs	r1, #1
 8001fc8:	f7ff fe34 	bl	8001c34 <_ZN9LcdScreen14LcdPrintNumberEtb>
 8001fcc:	e8bd 4010 	ldmia.w	sp!, {r4, lr}
 8001fd0:	2025      	movs	r0, #37	@ 0x25
 8001fd2:	f7ff bde1 	b.w	8001b98 <_ZN9LcdScreen12LcdPrintCharEh>
 8001fd6:	340a      	adds	r4, #10
 8001fd8:	b2a4      	uxth	r4, r4
 8001fda:	fbb4 f4f3 	udiv	r4, r4, r3
 8001fde:	2c64      	cmp	r4, #100	@ 0x64
 8001fe0:	bf02      	ittt	eq
 8001fe2:	3001      	addeq	r0, #1
 8001fe4:	2400      	moveq	r4, #0
 8001fe6:	b2c0      	uxtbeq	r0, r0
 8001fe8:	e7e1      	b.n	8001fae <_Z18ShowBME280HumidityRK12BME280Sensor+0x3e>

08001fea <_Z18ShowBME280PressureRK12BME280Sensor>:
 8001fea:	b510      	push	{r4, lr}
 8001fec:	f7fe ff3c 	bl	8000e68 <_ZNK12BME280Sensor11GetPressureEv>
 8001ff0:	4604      	mov	r4, r0
 8001ff2:	2101      	movs	r1, #1
 8001ff4:	2000      	movs	r0, #0
 8001ff6:	f7ff fdba 	bl	8001b6e <_ZN9LcdScreen8LcdToPosEhh>
 8001ffa:	0a20      	lsrs	r0, r4, #8
 8001ffc:	2101      	movs	r1, #1
 8001ffe:	f7ff fe45 	bl	8001c8c <_ZN9LcdScreen14LcdPrintNumberEmb>
 8002002:	2050      	movs	r0, #80	@ 0x50
 8002004:	f7ff fdc8 	bl	8001b98 <_ZN9LcdScreen12LcdPrintCharEh>
 8002008:	e8bd 4010 	ldmia.w	sp!, {r4, lr}
 800200c:	2061      	movs	r0, #97	@ 0x61
 800200e:	f7ff bdc3 	b.w	8001b98 <_ZN9LcdScreen12LcdPrintCharEh>
	...

08002014 <_Z15ShowBME280Errorv>:
 8002014:	b508      	push	{r3, lr}
 8002016:	f7ff fd9d 	bl	8001b54 <_ZN9LcdScreen8LcdClearEv>
 800201a:	2100      	movs	r1, #0
 800201c:	4608      	mov	r0, r1
 800201e:	f7ff fda6 	bl	8001b6e <_ZN9LcdScreen8LcdToPosEhh>
 8002022:	4806      	ldr	r0, [pc, #24]	@ (800203c <_Z15ShowBME280Errorv+0x28>)
 8002024:	f7ff fdc6 	bl	8001bb4 <_ZN9LcdScreen8LcdPrintEPc>
 8002028:	2000      	movs	r0, #0
 800202a:	2101      	movs	r1, #1
 800202c:	f7ff fd9f 	bl	8001b6e <_ZN9LcdScreen8LcdToPosEhh>
 8002030:	e8bd 4008 	ldmia.w	sp!, {r3, lr}
 8002034:	4802      	ldr	r0, [pc, #8]	@ (8002040 <_Z15ShowBME280Errorv+0x2c>)
 8002036:	f7ff bdbd 	b.w	8001bb4 <_ZN9LcdScreen8LcdPrintEPc>
 800203a:	bf00      	nop
 800203c:	08002276 	.word	0x08002276
 8002040:	0800227d 	.word	0x0800227d

08002044 <_Z18ShowBatteryVoltageRK13BatterySensor>:
 8002044:	b538      	push	{r3, r4, r5, lr}
 8002046:	4604      	mov	r4, r0
 8002048:	f7ff fd84 	bl	8001b54 <_ZN9LcdScreen8LcdClearEv>
 800204c:	2100      	movs	r1, #0
 800204e:	4608      	mov	r0, r1
 8002050:	f7ff fd8d 	bl	8001b6e <_ZN9LcdScreen8LcdToPosEhh>
 8002054:	4814      	ldr	r0, [pc, #80]	@ (80020a8 <_Z18ShowBatteryVoltageRK13BatterySensor+0x64>)
 8002056:	f7ff fdad 	bl	8001bb4 <_ZN9LcdScreen8LcdPrintEPc>
 800205a:	2101      	movs	r1, #1
 800205c:	2000      	movs	r0, #0
 800205e:	f7ff fd86 	bl	8001b6e <_ZN9LcdScreen8LcdToPosEhh>
 8002062:	4620      	mov	r0, r4
 8002064:	f7ff f992 	bl	800138c <_ZNK13BatterySensor14GetVoltageInMvEv>
 8002068:	f44f 727a 	mov.w	r2, #1000	@ 0x3e8
 800206c:	fbb0 f3f2 	udiv	r3, r0, r2
 8002070:	250a      	movs	r5, #10
 8002072:	fb02 0413 	mls	r4, r2, r3, r0
 8002076:	b2a4      	uxth	r4, r4
 8002078:	fbb4 f5f5 	udiv	r5, r4, r5
 800207c:	b2d8      	uxtb	r0, r3
 800207e:	2100      	movs	r1, #0
 8002080:	f7ff fda2 	bl	8001bc8 <_ZN9LcdScreen14LcdPrintNumberEhb>
 8002084:	202e      	movs	r0, #46	@ 0x2e
 8002086:	f7ff fd87 	bl	8001b98 <_ZN9LcdScreen12LcdPrintCharEh>
 800208a:	2c63      	cmp	r4, #99	@ 0x63
 800208c:	b2ed      	uxtb	r5, r5
 800208e:	d802      	bhi.n	8002096 <_Z18ShowBatteryVoltageRK13BatterySensor+0x52>
 8002090:	2030      	movs	r0, #48	@ 0x30
 8002092:	f7ff fd81 	bl	8001b98 <_ZN9LcdScreen12LcdPrintCharEh>
 8002096:	4628      	mov	r0, r5
 8002098:	2101      	movs	r1, #1
 800209a:	f7ff fd95 	bl	8001bc8 <_ZN9LcdScreen14LcdPrintNumberEhb>
 800209e:	e8bd 4038 	ldmia.w	sp!, {r3, r4, r5, lr}
 80020a2:	2056      	movs	r0, #86	@ 0x56
 80020a4:	f7ff bd78 	b.w	8001b98 <_ZN9LcdScreen12LcdPrintCharEh>
 80020a8:	08002283 	.word	0x08002283

080020ac <main>:
 80020ac:	b5f0      	push	{r4, r5, r6, r7, lr}
 80020ae:	2500      	movs	r5, #0
 80020b0:	462e      	mov	r6, r5
 80020b2:	b097      	sub	sp, #92	@ 0x5c
 80020b4:	4668      	mov	r0, sp
 80020b6:	f7ff fe43 	bl	8001d40 <_Z10InitClocksv>
 80020ba:	f7ff fe77 	bl	8001dac <_Z9InitPortsv>
 80020be:	f7ff f9d5 	bl	800146c <_ZN8ErrorLedC1Ev>
 80020c2:	2100      	movs	r1, #0
 80020c4:	4668      	mov	r0, sp
 80020c6:	f7ff f9d7 	bl	8001478 <_ZNK8ErrorLed9ShowErrorENS_9ErrorTypeE>
 80020ca:	2014      	movs	r0, #20
 80020cc:	f7ff f9a2 	bl	8001414 <_ZN10DelayTimer13DelayMilliSecEt>
 80020d0:	a801      	add	r0, sp, #4
 80020d2:	f7ff fe2f 	bl	8001d34 <_ZN12PowerControlC1Ev>
 80020d6:	a801      	add	r0, sp, #4
 80020d8:	f7ff fe06 	bl	8001ce8 <_ZN12PowerControl9PowerHoldEv>
 80020dc:	20c8      	movs	r0, #200	@ 0xc8
 80020de:	f7ff f999 	bl	8001414 <_ZN10DelayTimer13DelayMilliSecEt>
 80020e2:	f7ff fcb7 	bl	8001a54 <_ZN9LcdScreen7LcdInitEv>
 80020e6:	f7ff fd35 	bl	8001b54 <_ZN9LcdScreen8LcdClearEv>
 80020ea:	4830      	ldr	r0, [pc, #192]	@ (80021ac <main+0x100>)
 80020ec:	f7ff fd62 	bl	8001bb4 <_ZN9LcdScreen8LcdPrintEPc>
 80020f0:	a802      	add	r0, sp, #8
 80020f2:	f7ff fba9 	bl	8001848 <_ZN16KeyPressDetectorC1Ev>
 80020f6:	21ec      	movs	r1, #236	@ 0xec
 80020f8:	a807      	add	r0, sp, #28
 80020fa:	f7fe fe93 	bl	8000e24 <_ZN12BME280SensorC1Eh>
 80020fe:	4f2c      	ldr	r7, [pc, #176]	@ (80021b0 <main+0x104>)
 8002100:	a804      	add	r0, sp, #16
 8002102:	f7ff f93a 	bl	800137a <_ZN13BatterySensorC1Ev>
 8002106:	9503      	str	r5, [sp, #12]
 8002108:	a807      	add	r0, sp, #28
 800210a:	f7ff f8de 	bl	80012ca <_ZN12BME280Sensor9ReadProbeEv>
 800210e:	b930      	cbnz	r0, 800211e <main+0x72>
 8002110:	f7ff ff80 	bl	8002014 <_Z15ShowBME280Errorv>
 8002114:	2102      	movs	r1, #2
 8002116:	4668      	mov	r0, sp
 8002118:	f7ff f9ae 	bl	8001478 <_ZNK8ErrorLed9ShowErrorENS_9ErrorTypeE>
 800211c:	e7f4      	b.n	8002108 <main+0x5c>
 800211e:	f7ff fd19 	bl	8001b54 <_ZN9LcdScreen8LcdClearEv>
 8002122:	2e03      	cmp	r6, #3
 8002124:	d809      	bhi.n	800213a <main+0x8e>
 8002126:	e8df f006 	tbb	[pc, r6]
 800212a:	2002      	.short	0x2002
 800212c:	352c      	.short	0x352c
 800212e:	a807      	add	r0, sp, #28
 8002130:	f7ff fe47 	bl	8001dc2 <_Z21ShowBME280TemperatureRK12BME280Sensor>
 8002134:	a807      	add	r0, sp, #28
 8002136:	f7ff ff1b 	bl	8001f70 <_Z18ShowBME280HumidityRK12BME280Sensor>
 800213a:	a802      	add	r0, sp, #8
 800213c:	f7ff fb66 	bl	800180c <_ZN16KeyPressDetector5ResetEv>
 8002140:	2464      	movs	r4, #100	@ 0x64
 8002142:	a802      	add	r0, sp, #8
 8002144:	f7ff fb66 	bl	8001814 <_ZN16KeyPressDetector6UpdateEv>
 8002148:	3c01      	subs	r4, #1
 800214a:	200a      	movs	r0, #10
 800214c:	f7ff f962 	bl	8001414 <_ZN10DelayTimer13DelayMilliSecEt>
 8002150:	f014 04ff 	ands.w	r4, r4, #255	@ 0xff
 8002154:	d1f5      	bne.n	8002142 <main+0x96>
 8002156:	a802      	add	r0, sp, #8
 8002158:	f7ff fb66 	bl	8001828 <_ZNK16KeyPressDetector10WasPressedEv>
 800215c:	b1f0      	cbz	r0, 800219c <main+0xf0>
 800215e:	2e03      	cmp	r6, #3
 8002160:	d800      	bhi.n	8002164 <main+0xb8>
 8002162:	5dbe      	ldrb	r6, [r7, r6]
 8002164:	3401      	adds	r4, #1
 8002166:	b2e5      	uxtb	r5, r4
 8002168:	e7ce      	b.n	8002108 <main+0x5c>
 800216a:	a807      	add	r0, sp, #28
 800216c:	f7ff fe29 	bl	8001dc2 <_Z21ShowBME280TemperatureRK12BME280Sensor>
 8002170:	a807      	add	r0, sp, #28
 8002172:	f7ff ff3a 	bl	8001fea <_Z18ShowBME280PressureRK12BME280Sensor>
 8002176:	a807      	add	r0, sp, #28
 8002178:	f7fe fe76 	bl	8000e68 <_ZNK12BME280Sensor11GetPressureEv>
 800217c:	0a00      	lsrs	r0, r0, #8
 800217e:	9003      	str	r0, [sp, #12]
 8002180:	e7db      	b.n	800213a <main+0x8e>
 8002182:	a807      	add	r0, sp, #28
 8002184:	f7ff fe1d 	bl	8001dc2 <_Z21ShowBME280TemperatureRK12BME280Sensor>
 8002188:	a903      	add	r1, sp, #12
 800218a:	a807      	add	r0, sp, #28
 800218c:	f7ff fe48 	bl	8001e20 <_Z18ShowBME280AltitudeRK12BME280SensorRK14AltitudeMetter>
 8002190:	2500      	movs	r5, #0
 8002192:	e7d2      	b.n	800213a <main+0x8e>
 8002194:	a804      	add	r0, sp, #16
 8002196:	f7ff ff55 	bl	8002044 <_Z18ShowBatteryVoltageRK13BatterySensor>
 800219a:	e7ce      	b.n	800213a <main+0x8e>
 800219c:	2d77      	cmp	r5, #119	@ 0x77
 800219e:	d801      	bhi.n	80021a4 <main+0xf8>
 80021a0:	462c      	mov	r4, r5
 80021a2:	e7df      	b.n	8002164 <main+0xb8>
 80021a4:	a801      	add	r0, sp, #4
 80021a6:	f7ff fda9 	bl	8001cfc <_ZN12PowerControl11PowerUnholdEv>
 80021aa:	e7ad      	b.n	8002108 <main+0x5c>
 80021ac:	0800228b 	.word	0x0800228b
 80021b0:	08002294 	.word	0x08002294

080021b4 <Reset_Handler>:
 80021b4:	480d      	ldr	r0, [pc, #52]	@ (80021ec <LoopForever+0x2>)
 80021b6:	4685      	mov	sp, r0
 80021b8:	f7fe fd87 	bl	8000cca <SystemInit>
 80021bc:	480c      	ldr	r0, [pc, #48]	@ (80021f0 <LoopForever+0x6>)
 80021be:	490d      	ldr	r1, [pc, #52]	@ (80021f4 <LoopForever+0xa>)
 80021c0:	4a0d      	ldr	r2, [pc, #52]	@ (80021f8 <LoopForever+0xe>)
 80021c2:	2300      	movs	r3, #0
 80021c4:	e002      	b.n	80021cc <LoopCopyDataInit>

080021c6 <CopyDataInit>:
 80021c6:	58d4      	ldr	r4, [r2, r3]
 80021c8:	50c4      	str	r4, [r0, r3]
 80021ca:	3304      	adds	r3, #4

080021cc <LoopCopyDataInit>:
 80021cc:	18c4      	adds	r4, r0, r3
 80021ce:	428c      	cmp	r4, r1
 80021d0:	d3f9      	bcc.n	80021c6 <CopyDataInit>
 80021d2:	4a0a      	ldr	r2, [pc, #40]	@ (80021fc <LoopForever+0x12>)
 80021d4:	4c0a      	ldr	r4, [pc, #40]	@ (8002200 <LoopForever+0x16>)
 80021d6:	2300      	movs	r3, #0
 80021d8:	e001      	b.n	80021de <LoopFillZerobss>

080021da <FillZerobss>:
 80021da:	6013      	str	r3, [r2, #0]
 80021dc:	3204      	adds	r2, #4

080021de <LoopFillZerobss>:
 80021de:	42a2      	cmp	r2, r4
 80021e0:	d3fb      	bcc.n	80021da <FillZerobss>
 80021e2:	f000 f811 	bl	8002208 <__libc_init_array>
 80021e6:	f7ff ff61 	bl	80020ac <main>

080021ea <LoopForever>:
 80021ea:	e7fe      	b.n	80021ea <LoopForever>
 80021ec:	20005000 	.word	0x20005000
 80021f0:	20000000 	.word	0x20000000
 80021f4:	20000000 	.word	0x20000000
 80021f8:	080022a8 	.word	0x080022a8
 80021fc:	20000000 	.word	0x20000000
 8002200:	2000001c 	.word	0x2000001c

08002204 <ADC1_2_IRQHandler>:
 8002204:	e7fe      	b.n	8002204 <ADC1_2_IRQHandler>
	...

08002208 <__libc_init_array>:
 8002208:	b570      	push	{r4, r5, r6, lr}
 800220a:	2600      	movs	r6, #0
 800220c:	4d0c      	ldr	r5, [pc, #48]	@ (8002240 <__libc_init_array+0x38>)
 800220e:	4c0d      	ldr	r4, [pc, #52]	@ (8002244 <__libc_init_array+0x3c>)
 8002210:	1b64      	subs	r4, r4, r5
 8002212:	10a4      	asrs	r4, r4, #2
 8002214:	42a6      	cmp	r6, r4
 8002216:	d109      	bne.n	800222c <__libc_init_array+0x24>
 8002218:	f000 f81a 	bl	8002250 <_init>
 800221c:	2600      	movs	r6, #0
 800221e:	4d0a      	ldr	r5, [pc, #40]	@ (8002248 <__libc_init_array+0x40>)
 8002220:	4c0a      	ldr	r4, [pc, #40]	@ (800224c <__libc_init_array+0x44>)
 8002222:	1b64      	subs	r4, r4, r5
 8002224:	10a4      	asrs	r4, r4, #2
 8002226:	42a6      	cmp	r6, r4
 8002228:	d105      	bne.n	8002236 <__libc_init_array+0x2e>
 800222a:	bd70      	pop	{r4, r5, r6, pc}
 800222c:	f855 3b04 	ldr.w	r3, [r5], #4
 8002230:	4798      	blx	r3
 8002232:	3601      	adds	r6, #1
 8002234:	e7ee      	b.n	8002214 <__libc_init_array+0xc>
 8002236:	f855 3b04 	ldr.w	r3, [r5], #4
 800223a:	4798      	blx	r3
 800223c:	3601      	adds	r6, #1
 800223e:	e7f2      	b.n	8002226 <__libc_init_array+0x1e>
 8002240:	080022a0 	.word	0x080022a0
 8002244:	080022a0 	.word	0x080022a0
 8002248:	080022a0 	.word	0x080022a0
 800224c:	080022a4 	.word	0x080022a4

08002250 <_init>:
 8002250:	b5f8      	push	{r3, r4, r5, r6, r7, lr}
 8002252:	bf00      	nop
 8002254:	bcf8      	pop	{r3, r4, r5, r6, r7}
 8002256:	bc08      	pop	{r3}
 8002258:	469e      	mov	lr, r3
 800225a:	4770      	bx	lr

0800225c <_fini>:
 800225c:	b5f8      	push	{r3, r4, r5, r6, r7, lr}
 800225e:	bf00      	nop
 8002260:	bcf8      	pop	{r3, r4, r5, r6, r7}
 8002262:	bc08      	pop	{r3}
 8002264:	469e      	mov	lr, r3
 8002266:	4770      	bx	lr
