
HumidityMetter.elf:     file format elf32-littlearm

Sections:
Idx Name          Size      VMA       LMA       File off  Algn
  0 .isr_vector   00000130  08000000  08000000  00001000  2**0
                  CONTENTS, ALLOC, LOAD, READONLY, DATA
  1 .text         00000fd4  08000130  08000130  00001130  2**2
                  CONTENTS, ALLOC, LOAD, READONLY, CODE
  2 .rodata       00000864  08001104  08001104  00002104  2**2
                  CONTENTS, ALLOC, LOAD, READONLY, DATA
  3 .ARM.extab    00000000  08001968  08001968  00002978  2**0
                  CONTENTS
  4 .ARM          00000000  08001968  08001968  00002978  2**0
                  CONTENTS
  5 .preinit_array 00000000  08001968  08001978  00002978  2**0
                  CONTENTS, ALLOC, LOAD, DATA
  6 .init_array   0000000c  08001968  08001968  00002968  2**2
                  CONTENTS, ALLOC, LOAD, READONLY, DATA
  7 .fini_array   00000004  08001974  08001974  00002974  2**2
                  CONTENTS, ALLOC, LOAD, READONLY, DATA
  8 .data         00000000  20000000  20000000  00002978  2**0
                  CONTENTS, ALLOC, LOAD, DATA
  9 .bss          00000048  20000000  08001978  00003000  2**2
                  ALLOC
 10 ._user_heap_stack 00000600  20000048  08001978  00003048  2**0
                  ALLOC
 11 .ARM.attributes 00000029  00000000  00000000  00002978  2**0
                  CONTENTS, READONLY
 12 .comment      00000043  00000000  00000000  000029a1  2**0
                  CONTENTS, READONLY
 13 .debug_frame  0000004c  00000000  00000000  000029e4  2**2
                  CONTENTS, READONLY, DEBUGGING, OCTETS

Disassembly of section .text:

08000130 <__do_global_dtors_aux>:
 8000130:	b510      	push	{r4, lr}
 8000132:	4c05      	ldr	r4, [pc, #20]	@ (8000148 <__do_global_dtors_aux+0x18>)
 8000134:	7823      	ldrb	r3, [r4, #0]
 8000136:	b933      	cbnz	r3, 8000146 <__do_global_dtors_aux+0x16>
 8000138:	4b04      	ldr	r3, [pc, #16]	@ (800014c <__do_global_dtors_aux+0x1c>)
 800013a:	b113      	cbz	r3, 8000142 <__do_global_dtors_aux+0x12>
 800013c:	4804      	ldr	r0, [pc, #16]	@ (8000150 <__do_global_dtors_aux+0x20>)
 800013e:	f3af 8000 	nop.w
 8000142:	2301      	movs	r3, #1
 8000144:	7023      	strb	r3, [r4, #0]
 8000146:	bd10      	pop	{r4, pc}
 8000148:	20000000 	.word	0x20000000
 800014c:	00000000 	.word	0x00000000
 8000150:	080010ec 	.word	0x080010ec

08000154 <frame_dummy>:
 8000154:	b508      	push	{r3, lr}
 8000156:	4b03      	ldr	r3, [pc, #12]	@ (8000164 <frame_dummy+0x10>)
 8000158:	b11b      	cbz	r3, 8000162 <frame_dummy+0xe>
 800015a:	4903      	ldr	r1, [pc, #12]	@ (8000168 <frame_dummy+0x14>)
 800015c:	4803      	ldr	r0, [pc, #12]	@ (800016c <frame_dummy+0x18>)
 800015e:	f3af 8000 	nop.w
 8000162:	bd08      	pop	{r3, pc}
 8000164:	00000000 	.word	0x00000000
 8000168:	20000004 	.word	0x20000004
 800016c:	080010ec 	.word	0x080010ec

08000170 <NMI_Handler>:
 8000170:	e7fe      	b.n	8000170 <NMI_Handler>

08000172 <HardFault_Handler>:
 8000172:	e7fe      	b.n	8000172 <HardFault_Handler>

08000174 <MemManage_Handler>:
 8000174:	e7fe      	b.n	8000174 <MemManage_Handler>

08000176 <BusFault_Handler>:
 8000176:	e7fe      	b.n	8000176 <BusFault_Handler>

08000178 <UsageFault_Handler>:
 8000178:	e7fe      	b.n	8000178 <UsageFault_Handler>

0800017a <SVC_Handler>:
 800017a:	4770      	bx	lr

0800017c <DebugMon_Handler>:
 800017c:	4770      	bx	lr

0800017e <PendSV_Handler>:
 800017e:	4770      	bx	lr

08000180 <SysTick_Handler>:
 8000180:	4770      	bx	lr

08000182 <SystemInit>:
 8000182:	4770      	bx	lr

08000184 <_ZN10DelayTimer4InitEtt>:
 8000184:	4a0e      	ldr	r2, [pc, #56]	@ (80001c0 <_ZN10DelayTimer4InitEtt+0x3c>)
 8000186:	6993      	ldr	r3, [r2, #24]
 8000188:	f443 6300 	orr.w	r3, r3, #2048	@ 0x800
 800018c:	6193      	str	r3, [r2, #24]
 800018e:	4b0d      	ldr	r3, [pc, #52]	@ (80001c4 <_ZN10DelayTimer4InitEtt+0x40>)
 8000190:	689a      	ldr	r2, [r3, #8]
 8000192:	f022 0207 	bic.w	r2, r2, #7
 8000196:	609a      	str	r2, [r3, #8]
 8000198:	2201      	movs	r2, #1
 800019a:	601a      	str	r2, [r3, #0]
 800019c:	681a      	ldr	r2, [r3, #0]
 800019e:	f022 0280 	bic.w	r2, r2, #128	@ 0x80
 80001a2:	601a      	str	r2, [r3, #0]
 80001a4:	2200      	movs	r2, #0
 80001a6:	60da      	str	r2, [r3, #12]
 80001a8:	6299      	str	r1, [r3, #40]	@ 0x28
 80001aa:	62d8      	str	r0, [r3, #44]	@ 0x2c
 80001ac:	625a      	str	r2, [r3, #36]	@ 0x24
 80001ae:	695a      	ldr	r2, [r3, #20]
 80001b0:	f042 0201 	orr.w	r2, r2, #1
 80001b4:	615a      	str	r2, [r3, #20]
 80001b6:	691a      	ldr	r2, [r3, #16]
 80001b8:	f022 0201 	bic.w	r2, r2, #1
 80001bc:	611a      	str	r2, [r3, #16]
 80001be:	4770      	bx	lr
 80001c0:	40021000 	.word	0x40021000
 80001c4:	40012c00 	.word	0x40012c00

080001c8 <_ZN10DelayTimer13DelayMicroSecEt>:
 80001c8:	2100      	movs	r1, #0
 80001ca:	b508      	push	{r3, lr}
 80001cc:	f7ff ffda 	bl	8000184 <_ZN10DelayTimer4InitEtt>
 80001d0:	4a02      	ldr	r2, [pc, #8]	@ (80001dc <_ZN10DelayTimer13DelayMicroSecEt+0x14>)
 80001d2:	6913      	ldr	r3, [r2, #16]
 80001d4:	07db      	lsls	r3, r3, #31
 80001d6:	d5fc      	bpl.n	80001d2 <_ZN10DelayTimer13DelayMicroSecEt+0xa>
 80001d8:	bd08      	pop	{r3, pc}
 80001da:	bf00      	nop
 80001dc:	40012c00 	.word	0x40012c00

080001e0 <_ZN10DelayTimer13DelayMilliSecEt>:
 80001e0:	f240 31e7 	movw	r1, #999	@ 0x3e7
 80001e4:	b508      	push	{r3, lr}
 80001e6:	f7ff ffcd 	bl	8000184 <_ZN10DelayTimer4InitEtt>
 80001ea:	4a02      	ldr	r2, [pc, #8]	@ (80001f4 <_ZN10DelayTimer13DelayMilliSecEt+0x14>)
 80001ec:	6913      	ldr	r3, [r2, #16]
 80001ee:	07db      	lsls	r3, r3, #31
 80001f0:	d5fc      	bpl.n	80001ec <_ZN10DelayTimer13DelayMilliSecEt+0xc>
 80001f2:	bd08      	pop	{r3, pc}
 80001f4:	40012c00 	.word	0x40012c00

080001f8 <_ZN10DelayTimer8DelaySecEt>:
 80001f8:	b570      	push	{r4, r5, r6, lr}
 80001fa:	4604      	mov	r4, r0
 80001fc:	2500      	movs	r5, #0
 80001fe:	4e07      	ldr	r6, [pc, #28]	@ (800021c <_ZN10DelayTimer8DelaySecEt+0x24>)
 8000200:	42a5      	cmp	r5, r4
 8000202:	d100      	bne.n	8000206 <_ZN10DelayTimer8DelaySecEt+0xe>
 8000204:	bd70      	pop	{r4, r5, r6, pc}
 8000206:	f24c 314f 	movw	r1, #49999	@ 0xc34f
 800020a:	2014      	movs	r0, #20
 800020c:	f7ff ffba 	bl	8000184 <_ZN10DelayTimer4InitEtt>
 8000210:	6933      	ldr	r3, [r6, #16]
 8000212:	07db      	lsls	r3, r3, #31
 8000214:	d5fc      	bpl.n	8000210 <_ZN10DelayTimer8DelaySecEt+0x18>
 8000216:	3501      	adds	r5, #1
 8000218:	e7f2      	b.n	8000200 <_ZN10DelayTimer8DelaySecEt+0x8>
 800021a:	bf00      	nop
 800021c:	40012c00 	.word	0x40012c00

08000220 <_ZN8ErrorLed5LedOnEv>:
 8000220:	4a02      	ldr	r2, [pc, #8]	@ (800022c <_ZN8ErrorLed5LedOnEv+0xc>)
 8000222:	6913      	ldr	r3, [r2, #16]
 8000224:	f043 0380 	orr.w	r3, r3, #128	@ 0x80
 8000228:	6113      	str	r3, [r2, #16]
 800022a:	4770      	bx	lr
 800022c:	40010800 	.word	0x40010800

08000230 <_ZN8ErrorLed6LedOffEv>:
 8000230:	4a02      	ldr	r2, [pc, #8]	@ (800023c <_ZN8ErrorLed6LedOffEv+0xc>)
 8000232:	6953      	ldr	r3, [r2, #20]
 8000234:	f043 0380 	orr.w	r3, r3, #128	@ 0x80
 8000238:	6153      	str	r3, [r2, #20]
 800023a:	4770      	bx	lr
 800023c:	40010800 	.word	0x40010800

08000240 <_ZNK8ErrorLed4InitEv>:
 8000240:	b510      	push	{r4, lr}
 8000242:	4c06      	ldr	r4, [pc, #24]	@ (800025c <_ZNK8ErrorLed4InitEv+0x1c>)
 8000244:	4620      	mov	r0, r4
 8000246:	f000 f83f 	bl	80002c8 <_ZN16GpioConfigurator15GpioClockEnableEP12GPIO_TypeDef>
 800024a:	4620      	mov	r0, r4
 800024c:	2107      	movs	r1, #7
 800024e:	f000 f867 	bl	8000320 <_ZN16GpioConfigurator18SetGpioOutPushPullEP12GPIO_TypeDefh>
 8000252:	e8bd 4010 	ldmia.w	sp!, {r4, lr}
 8000256:	f7ff bfeb 	b.w	8000230 <_ZN8ErrorLed6LedOffEv>
 800025a:	bf00      	nop
 800025c:	40010800 	.word	0x40010800

08000260 <_ZN8ErrorLedC1Ev>:
 8000260:	b510      	push	{r4, lr}
 8000262:	4604      	mov	r4, r0
 8000264:	f7ff ffec 	bl	8000240 <_ZNK8ErrorLed4InitEv>
 8000268:	4620      	mov	r0, r4
 800026a:	bd10      	pop	{r4, pc}

0800026c <_ZNK8ErrorLed9ShowErrorENS_9ErrorTypeE>:
 800026c:	b538      	push	{r3, r4, r5, lr}
 800026e:	2904      	cmp	r1, #4
 8000270:	d804      	bhi.n	800027c <_ZNK8ErrorLed9ShowErrorENS_9ErrorTypeE+0x10>
 8000272:	e8df f001 	tbb	[pc, r1]
 8000276:	1c12      	.short	0x1c12
 8000278:	1816      	.short	0x1816
 800027a:	1a          	.byte	0x1a
 800027b:	00          	.byte	0x00
 800027c:	2400      	movs	r4, #0
 800027e:	2500      	movs	r5, #0
 8000280:	fa44 f305 	asr.w	r3, r4, r5
 8000284:	07db      	lsls	r3, r3, #31
 8000286:	d514      	bpl.n	80002b2 <_ZNK8ErrorLed9ShowErrorENS_9ErrorTypeE+0x46>
 8000288:	f7ff ffca 	bl	8000220 <_ZN8ErrorLed5LedOnEv>
 800028c:	20c8      	movs	r0, #200	@ 0xc8
 800028e:	3501      	adds	r5, #1
 8000290:	f7ff ffa6 	bl	80001e0 <_ZN10DelayTimer13DelayMilliSecEt>
 8000294:	2d10      	cmp	r5, #16
 8000296:	d1f3      	bne.n	8000280 <_ZNK8ErrorLed9ShowErrorENS_9ErrorTypeE+0x14>
 8000298:	bd38      	pop	{r3, r4, r5, pc}
 800029a:	e8bd 4038 	ldmia.w	sp!, {r3, r4, r5, lr}
 800029e:	f7ff bfc7 	b.w	8000230 <_ZN8ErrorLed6LedOffEv>
 80002a2:	2405      	movs	r4, #5
 80002a4:	e7eb      	b.n	800027e <_ZNK8ErrorLed9ShowErrorENS_9ErrorTypeE+0x12>
 80002a6:	2415      	movs	r4, #21
 80002a8:	e7e9      	b.n	800027e <_ZNK8ErrorLed9ShowErrorENS_9ErrorTypeE+0x12>
 80002aa:	2455      	movs	r4, #85	@ 0x55
 80002ac:	e7e7      	b.n	800027e <_ZNK8ErrorLed9ShowErrorENS_9ErrorTypeE+0x12>
 80002ae:	2401      	movs	r4, #1
 80002b0:	e7e5      	b.n	800027e <_ZNK8ErrorLed9ShowErrorENS_9ErrorTypeE+0x12>
 80002b2:	f7ff ffbd 	bl	8000230 <_ZN8ErrorLed6LedOffEv>
 80002b6:	e7e9      	b.n	800028c <_ZNK8ErrorLed9ShowErrorENS_9ErrorTypeE+0x20>

080002b8 <_ZNK4font12Font8x8Right13GetCharBitmapEh>:
 80002b8:	4801      	ldr	r0, [pc, #4]	@ (80002c0 <_ZNK4font12Font8x8Right13GetCharBitmapEh+0x8>)
 80002ba:	eb00 00c1 	add.w	r0, r0, r1, lsl #3
 80002be:	4770      	bx	lr
 80002c0:	08001118 	.word	0x08001118

080002c4 <_ZNK4font12Font8x8Right8GetWidthEv>:
 80002c4:	2008      	movs	r0, #8
 80002c6:	4770      	bx	lr

080002c8 <_ZN16GpioConfigurator15GpioClockEnableEP12GPIO_TypeDef>:
 80002c8:	4b10      	ldr	r3, [pc, #64]	@ (800030c <_ZN16GpioConfigurator15GpioClockEnableEP12GPIO_TypeDef+0x44>)
 80002ca:	4298      	cmp	r0, r3
 80002cc:	d105      	bne.n	80002da <_ZN16GpioConfigurator15GpioClockEnableEP12GPIO_TypeDef+0x12>
 80002ce:	4a10      	ldr	r2, [pc, #64]	@ (8000310 <_ZN16GpioConfigurator15GpioClockEnableEP12GPIO_TypeDef+0x48>)
 80002d0:	6993      	ldr	r3, [r2, #24]
 80002d2:	f043 0304 	orr.w	r3, r3, #4
 80002d6:	6193      	str	r3, [r2, #24]
 80002d8:	4770      	bx	lr
 80002da:	4b0e      	ldr	r3, [pc, #56]	@ (8000314 <_ZN16GpioConfigurator15GpioClockEnableEP12GPIO_TypeDef+0x4c>)
 80002dc:	4298      	cmp	r0, r3
 80002de:	d104      	bne.n	80002ea <_ZN16GpioConfigurator15GpioClockEnableEP12GPIO_TypeDef+0x22>
 80002e0:	4a0b      	ldr	r2, [pc, #44]	@ (8000310 <_ZN16GpioConfigurator15GpioClockEnableEP12GPIO_TypeDef+0x48>)
 80002e2:	6993      	ldr	r3, [r2, #24]
 80002e4:	f043 0308 	orr.w	r3, r3, #8
 80002e8:	e7f5      	b.n	80002d6 <_ZN16GpioConfigurator15GpioClockEnableEP12GPIO_TypeDef+0xe>
 80002ea:	4b0b      	ldr	r3, [pc, #44]	@ (8000318 <_ZN16GpioConfigurator15GpioClockEnableEP12GPIO_TypeDef+0x50>)
 80002ec:	4298      	cmp	r0, r3
 80002ee:	d104      	bne.n	80002fa <_ZN16GpioConfigurator15GpioClockEnableEP12GPIO_TypeDef+0x32>
 80002f0:	4a07      	ldr	r2, [pc, #28]	@ (8000310 <_ZN16GpioConfigurator15GpioClockEnableEP12GPIO_TypeDef+0x48>)
 80002f2:	6993      	ldr	r3, [r2, #24]
 80002f4:	f043 0310 	orr.w	r3, r3, #16
 80002f8:	e7ed      	b.n	80002d6 <_ZN16GpioConfigurator15GpioClockEnableEP12GPIO_TypeDef+0xe>
 80002fa:	4b08      	ldr	r3, [pc, #32]	@ (800031c <_ZN16GpioConfigurator15GpioClockEnableEP12GPIO_TypeDef+0x54>)
 80002fc:	4298      	cmp	r0, r3
 80002fe:	d1eb      	bne.n	80002d8 <_ZN16GpioConfigurator15GpioClockEnableEP12GPIO_TypeDef+0x10>
 8000300:	4a03      	ldr	r2, [pc, #12]	@ (8000310 <_ZN16GpioConfigurator15GpioClockEnableEP12GPIO_TypeDef+0x48>)
 8000302:	6993      	ldr	r3, [r2, #24]
 8000304:	f043 0320 	orr.w	r3, r3, #32
 8000308:	e7e5      	b.n	80002d6 <_ZN16GpioConfigurator15GpioClockEnableEP12GPIO_TypeDef+0xe>
 800030a:	bf00      	nop
 800030c:	40010800 	.word	0x40010800
 8000310:	40021000 	.word	0x40021000
 8000314:	40010c00 	.word	0x40010c00
 8000318:	40011000 	.word	0x40011000
 800031c:	40011400 	.word	0x40011400

08000320 <_ZN16GpioConfigurator18SetGpioOutPushPullEP12GPIO_TypeDefh>:
 8000320:	220f      	movs	r2, #15
 8000322:	b510      	push	{r4, lr}
 8000324:	2401      	movs	r4, #1
 8000326:	2907      	cmp	r1, #7
 8000328:	bf86      	itte	hi
 800032a:	f1a1 0308 	subhi.w	r3, r1, #8
 800032e:	009b      	lslhi	r3, r3, #2
 8000330:	008b      	lslls	r3, r1, #2
 8000332:	b2db      	uxtb	r3, r3
 8000334:	409c      	lsls	r4, r3
 8000336:	2907      	cmp	r1, #7
 8000338:	fa02 f303 	lsl.w	r3, r2, r3
 800033c:	ea6f 0303 	mvn.w	r3, r3
 8000340:	d906      	bls.n	8000350 <_ZN16GpioConfigurator18SetGpioOutPushPullEP12GPIO_TypeDefh+0x30>
 8000342:	6842      	ldr	r2, [r0, #4]
 8000344:	4013      	ands	r3, r2
 8000346:	6043      	str	r3, [r0, #4]
 8000348:	6843      	ldr	r3, [r0, #4]
 800034a:	4323      	orrs	r3, r4
 800034c:	6043      	str	r3, [r0, #4]
 800034e:	bd10      	pop	{r4, pc}
 8000350:	6802      	ldr	r2, [r0, #0]
 8000352:	4013      	ands	r3, r2
 8000354:	6003      	str	r3, [r0, #0]
 8000356:	6803      	ldr	r3, [r0, #0]
 8000358:	4323      	orrs	r3, r4
 800035a:	6003      	str	r3, [r0, #0]
 800035c:	e7f7      	b.n	800034e <_ZN16GpioConfigurator18SetGpioOutPushPullEP12GPIO_TypeDefh+0x2e>

0800035e <_ZN16GpioConfigurator19SetGpioOutOpenDrainEP12GPIO_TypeDefh>:
 800035e:	220f      	movs	r2, #15
 8000360:	b510      	push	{r4, lr}
 8000362:	2405      	movs	r4, #5
 8000364:	2907      	cmp	r1, #7
 8000366:	bf86      	itte	hi
 8000368:	f1a1 0308 	subhi.w	r3, r1, #8
 800036c:	009b      	lslhi	r3, r3, #2
 800036e:	008b      	lslls	r3, r1, #2
 8000370:	b2db      	uxtb	r3, r3
 8000372:	409c      	lsls	r4, r3
 8000374:	2907      	cmp	r1, #7
 8000376:	fa02 f303 	lsl.w	r3, r2, r3
 800037a:	ea6f 0303 	mvn.w	r3, r3
 800037e:	d906      	bls.n	800038e <_ZN16GpioConfigurator19SetGpioOutOpenDrainEP12GPIO_TypeDefh+0x30>
 8000380:	6842      	ldr	r2, [r0, #4]
 8000382:	4013      	ands	r3, r2
 8000384:	6043      	str	r3, [r0, #4]
 8000386:	6843      	ldr	r3, [r0, #4]
 8000388:	4323      	orrs	r3, r4
 800038a:	6043      	str	r3, [r0, #4]
 800038c:	bd10      	pop	{r4, pc}
 800038e:	6802      	ldr	r2, [r0, #0]
 8000390:	4013      	ands	r3, r2
 8000392:	6003      	str	r3, [r0, #0]
 8000394:	6803      	ldr	r3, [r0, #0]
 8000396:	4323      	orrs	r3, r4
 8000398:	6003      	str	r3, [r0, #0]
 800039a:	e7f7      	b.n	800038c <_ZN16GpioConfigurator19SetGpioOutOpenDrainEP12GPIO_TypeDefh+0x2e>

0800039c <_ZN16GpioConfigurator17SetGpioInFloatingEP12GPIO_TypeDefh>:
 800039c:	220f      	movs	r2, #15
 800039e:	b510      	push	{r4, lr}
 80003a0:	2404      	movs	r4, #4
 80003a2:	2907      	cmp	r1, #7
 80003a4:	bf86      	itte	hi
 80003a6:	f1a1 0308 	subhi.w	r3, r1, #8
 80003aa:	009b      	lslhi	r3, r3, #2
 80003ac:	008b      	lslls	r3, r1, #2
 80003ae:	b2db      	uxtb	r3, r3
 80003b0:	409c      	lsls	r4, r3
 80003b2:	2907      	cmp	r1, #7
 80003b4:	fa02 f303 	lsl.w	r3, r2, r3
 80003b8:	ea6f 0303 	mvn.w	r3, r3
 80003bc:	d906      	bls.n	80003cc <_ZN16GpioConfigurator17SetGpioInFloatingEP12GPIO_TypeDefh+0x30>
 80003be:	6842      	ldr	r2, [r0, #4]
 80003c0:	4013      	ands	r3, r2
 80003c2:	6043      	str	r3, [r0, #4]
 80003c4:	6843      	ldr	r3, [r0, #4]
 80003c6:	4323      	orrs	r3, r4
 80003c8:	6043      	str	r3, [r0, #4]
 80003ca:	bd10      	pop	{r4, pc}
 80003cc:	6802      	ldr	r2, [r0, #0]
 80003ce:	4013      	ands	r3, r2
 80003d0:	6003      	str	r3, [r0, #0]
 80003d2:	6803      	ldr	r3, [r0, #0]
 80003d4:	4323      	orrs	r3, r4
 80003d6:	6003      	str	r3, [r0, #0]
 80003d8:	e7f7      	b.n	80003ca <_ZN16GpioConfigurator17SetGpioInFloatingEP12GPIO_TypeDefh+0x2e>
	...

080003dc <_ZN3i2c11I2c400KHzSw4InitEv>:
 80003dc:	b510      	push	{r4, lr}
 80003de:	4c09      	ldr	r4, [pc, #36]	@ (8000404 <_ZN3i2c11I2c400KHzSw4InitEv+0x28>)
 80003e0:	4620      	mov	r0, r4
 80003e2:	f7ff ff71 	bl	80002c8 <_ZN16GpioConfigurator15GpioClockEnableEP12GPIO_TypeDef>
 80003e6:	2380      	movs	r3, #128	@ 0x80
 80003e8:	6123      	str	r3, [r4, #16]
 80003ea:	2340      	movs	r3, #64	@ 0x40
 80003ec:	4620      	mov	r0, r4
 80003ee:	6123      	str	r3, [r4, #16]
 80003f0:	2107      	movs	r1, #7
 80003f2:	f7ff ffb4 	bl	800035e <_ZN16GpioConfigurator19SetGpioOutOpenDrainEP12GPIO_TypeDefh>
 80003f6:	2106      	movs	r1, #6
 80003f8:	4620      	mov	r0, r4
 80003fa:	f7ff ffb0 	bl	800035e <_ZN16GpioConfigurator19SetGpioOutOpenDrainEP12GPIO_TypeDefh>
 80003fe:	bf00      	nop
 8000400:	bd10      	pop	{r4, pc}
 8000402:	bf00      	nop
 8000404:	40010c00 	.word	0x40010c00

08000408 <_ZN3i2c11I2c400KHzSw14StartConditionEv>:
 8000408:	2240      	movs	r2, #64	@ 0x40
 800040a:	4b04      	ldr	r3, [pc, #16]	@ (800041c <_ZN3i2c11I2c400KHzSw14StartConditionEv+0x14>)
 800040c:	611a      	str	r2, [r3, #16]
 800040e:	bf00      	nop
 8000410:	2180      	movs	r1, #128	@ 0x80
 8000412:	6159      	str	r1, [r3, #20]
 8000414:	bf00      	nop
 8000416:	615a      	str	r2, [r3, #20]
 8000418:	bf00      	nop
 800041a:	4770      	bx	lr
 800041c:	40010c00 	.word	0x40010c00

08000420 <_ZN3i2c11I2c400KHzSw13StopConditionEv>:
 8000420:	2280      	movs	r2, #128	@ 0x80
 8000422:	4b04      	ldr	r3, [pc, #16]	@ (8000434 <_ZN3i2c11I2c400KHzSw13StopConditionEv+0x14>)
 8000424:	615a      	str	r2, [r3, #20]
 8000426:	bf00      	nop
 8000428:	2140      	movs	r1, #64	@ 0x40
 800042a:	6119      	str	r1, [r3, #16]
 800042c:	bf00      	nop
 800042e:	611a      	str	r2, [r3, #16]
 8000430:	bf00      	nop
 8000432:	4770      	bx	lr
 8000434:	40010c00 	.word	0x40010c00

08000438 <_ZN3i2c11I2c400KHzSw9GetAckBitEb>:
 8000438:	2280      	movs	r2, #128	@ 0x80
 800043a:	4b07      	ldr	r3, [pc, #28]	@ (8000458 <_ZN3i2c11I2c400KHzSw9GetAckBitEb+0x20>)
 800043c:	b150      	cbz	r0, 8000454 <_ZN3i2c11I2c400KHzSw9GetAckBitEb+0x1c>
 800043e:	611a      	str	r2, [r3, #16]
 8000440:	bf00      	nop
 8000442:	2240      	movs	r2, #64	@ 0x40
 8000444:	611a      	str	r2, [r3, #16]
 8000446:	bf00      	nop
 8000448:	6898      	ldr	r0, [r3, #8]
 800044a:	615a      	str	r2, [r3, #20]
 800044c:	bf00      	nop
 800044e:	f3c0 10c0 	ubfx	r0, r0, #7, #1
 8000452:	4770      	bx	lr
 8000454:	615a      	str	r2, [r3, #20]
 8000456:	e7f3      	b.n	8000440 <_ZN3i2c11I2c400KHzSw9GetAckBitEb+0x8>
 8000458:	40010c00 	.word	0x40010c00

0800045c <_ZN3i2c11I2c400KHzSw6TxByteEhb>:
 800045c:	4603      	mov	r3, r0
 800045e:	4608      	mov	r0, r1
 8000460:	2180      	movs	r1, #128	@ 0x80
 8000462:	4a33      	ldr	r2, [pc, #204]	@ (8000530 <_ZN3i2c11I2c400KHzSw6TxByteEhb+0xd4>)
 8000464:	f013 0f80 	tst.w	r3, #128	@ 0x80
 8000468:	bf14      	ite	ne
 800046a:	6111      	strne	r1, [r2, #16]
 800046c:	6151      	streq	r1, [r2, #20]
 800046e:	bf00      	nop
 8000470:	2140      	movs	r1, #64	@ 0x40
 8000472:	6111      	str	r1, [r2, #16]
 8000474:	bf00      	nop
 8000476:	6151      	str	r1, [r2, #20]
 8000478:	bf00      	nop
 800047a:	2180      	movs	r1, #128	@ 0x80
 800047c:	f013 0f40 	tst.w	r3, #64	@ 0x40
 8000480:	bf14      	ite	ne
 8000482:	6111      	strne	r1, [r2, #16]
 8000484:	6151      	streq	r1, [r2, #20]
 8000486:	bf00      	nop
 8000488:	2140      	movs	r1, #64	@ 0x40
 800048a:	4a29      	ldr	r2, [pc, #164]	@ (8000530 <_ZN3i2c11I2c400KHzSw6TxByteEhb+0xd4>)
 800048c:	6111      	str	r1, [r2, #16]
 800048e:	bf00      	nop
 8000490:	6151      	str	r1, [r2, #20]
 8000492:	bf00      	nop
 8000494:	2180      	movs	r1, #128	@ 0x80
 8000496:	f013 0f20 	tst.w	r3, #32
 800049a:	bf14      	ite	ne
 800049c:	6111      	strne	r1, [r2, #16]
 800049e:	6151      	streq	r1, [r2, #20]
 80004a0:	bf00      	nop
 80004a2:	2140      	movs	r1, #64	@ 0x40
 80004a4:	6111      	str	r1, [r2, #16]
 80004a6:	bf00      	nop
 80004a8:	6151      	str	r1, [r2, #20]
 80004aa:	bf00      	nop
 80004ac:	2180      	movs	r1, #128	@ 0x80
 80004ae:	f013 0f10 	tst.w	r3, #16
 80004b2:	bf14      	ite	ne
 80004b4:	6111      	strne	r1, [r2, #16]
 80004b6:	6151      	streq	r1, [r2, #20]
 80004b8:	bf00      	nop
 80004ba:	2140      	movs	r1, #64	@ 0x40
 80004bc:	4a1c      	ldr	r2, [pc, #112]	@ (8000530 <_ZN3i2c11I2c400KHzSw6TxByteEhb+0xd4>)
 80004be:	6111      	str	r1, [r2, #16]
 80004c0:	bf00      	nop
 80004c2:	6151      	str	r1, [r2, #20]
 80004c4:	bf00      	nop
 80004c6:	2180      	movs	r1, #128	@ 0x80
 80004c8:	f013 0f08 	tst.w	r3, #8
 80004cc:	bf14      	ite	ne
 80004ce:	6111      	strne	r1, [r2, #16]
 80004d0:	6151      	streq	r1, [r2, #20]
 80004d2:	bf00      	nop
 80004d4:	2140      	movs	r1, #64	@ 0x40
 80004d6:	6111      	str	r1, [r2, #16]
 80004d8:	bf00      	nop
 80004da:	6151      	str	r1, [r2, #20]
 80004dc:	bf00      	nop
 80004de:	2180      	movs	r1, #128	@ 0x80
 80004e0:	f013 0f04 	tst.w	r3, #4
 80004e4:	bf14      	ite	ne
 80004e6:	6111      	strne	r1, [r2, #16]
 80004e8:	6151      	streq	r1, [r2, #20]
 80004ea:	bf00      	nop
 80004ec:	2140      	movs	r1, #64	@ 0x40
 80004ee:	4a10      	ldr	r2, [pc, #64]	@ (8000530 <_ZN3i2c11I2c400KHzSw6TxByteEhb+0xd4>)
 80004f0:	6111      	str	r1, [r2, #16]
 80004f2:	bf00      	nop
 80004f4:	6151      	str	r1, [r2, #20]
 80004f6:	bf00      	nop
 80004f8:	2180      	movs	r1, #128	@ 0x80
 80004fa:	f013 0f02 	tst.w	r3, #2
 80004fe:	bf14      	ite	ne
 8000500:	6111      	strne	r1, [r2, #16]
 8000502:	6151      	streq	r1, [r2, #20]
 8000504:	bf00      	nop
 8000506:	2140      	movs	r1, #64	@ 0x40
 8000508:	6111      	str	r1, [r2, #16]
 800050a:	bf00      	nop
 800050c:	6151      	str	r1, [r2, #20]
 800050e:	bf00      	nop
 8000510:	f013 0f01 	tst.w	r3, #1
 8000514:	f04f 0380 	mov.w	r3, #128	@ 0x80
 8000518:	bf14      	ite	ne
 800051a:	6113      	strne	r3, [r2, #16]
 800051c:	6153      	streq	r3, [r2, #20]
 800051e:	bf00      	nop
 8000520:	2240      	movs	r2, #64	@ 0x40
 8000522:	4b03      	ldr	r3, [pc, #12]	@ (8000530 <_ZN3i2c11I2c400KHzSw6TxByteEhb+0xd4>)
 8000524:	611a      	str	r2, [r3, #16]
 8000526:	bf00      	nop
 8000528:	615a      	str	r2, [r3, #20]
 800052a:	bf00      	nop
 800052c:	f7ff bf84 	b.w	8000438 <_ZN3i2c11I2c400KHzSw9GetAckBitEb>
 8000530:	40010c00 	.word	0x40010c00

08000534 <_ZN9stdAnalog6BufferIchLh24EE5ClearEv>:
 8000534:	2100      	movs	r1, #0
 8000536:	2218      	movs	r2, #24
 8000538:	7601      	strb	r1, [r0, #24]
 800053a:	f000 bdaa 	b.w	8001092 <memset>

0800053e <_ZN9stdAnalog6BufferIchLh24EE8PushBackEc>:
 800053e:	7e03      	ldrb	r3, [r0, #24]
 8000540:	2b17      	cmp	r3, #23
 8000542:	bf8d      	iteet	hi
 8000544:	2301      	movhi	r3, #1
 8000546:	54c1      	strbls	r1, [r0, r3]
 8000548:	3301      	addls	r3, #1
 800054a:	7643      	strbhi	r3, [r0, #25]
 800054c:	bf98      	it	ls
 800054e:	7603      	strbls	r3, [r0, #24]
 8000550:	4770      	bx	lr

08000552 <_ZN9stdAnalog6BufferIchLh24EE7ReverseEv>:
 8000552:	7e03      	ldrb	r3, [r0, #24]
 8000554:	b510      	push	{r4, lr}
 8000556:	2b01      	cmp	r3, #1
 8000558:	d90d      	bls.n	8000576 <_ZN9stdAnalog6BufferIchLh24EE7ReverseEv+0x24>
 800055a:	4602      	mov	r2, r0
 800055c:	3b01      	subs	r3, #1
 800055e:	b2db      	uxtb	r3, r3
 8000560:	5cc4      	ldrb	r4, [r0, r3]
 8000562:	7811      	ldrb	r1, [r2, #0]
 8000564:	f802 4b01 	strb.w	r4, [r2], #1
 8000568:	54c1      	strb	r1, [r0, r3]
 800056a:	3b01      	subs	r3, #1
 800056c:	1a11      	subs	r1, r2, r0
 800056e:	b2db      	uxtb	r3, r3
 8000570:	b2c9      	uxtb	r1, r1
 8000572:	428b      	cmp	r3, r1
 8000574:	d8f4      	bhi.n	8000560 <_ZN9stdAnalog6BufferIchLh24EE7ReverseEv+0xe>
 8000576:	bd10      	pop	{r4, pc}

08000578 <_ZN9stdAnalog6BufferIchLh24EE5ShiftEhhh>:
 8000578:	b570      	push	{r4, r5, r6, lr}
 800057a:	18d6      	adds	r6, r2, r3
 800057c:	2e18      	cmp	r6, #24
 800057e:	dc02      	bgt.n	8000586 <_ZN9stdAnalog6BufferIchLh24EE5ShiftEhhh+0xe>
 8000580:	18cd      	adds	r5, r1, r3
 8000582:	2d18      	cmp	r5, #24
 8000584:	dd02      	ble.n	800058c <_ZN9stdAnalog6BufferIchLh24EE5ShiftEhhh+0x14>
 8000586:	2301      	movs	r3, #1
 8000588:	7643      	strb	r3, [r0, #25]
 800058a:	bd70      	pop	{r4, r5, r6, pc}
 800058c:	7e04      	ldrb	r4, [r0, #24]
 800058e:	42a6      	cmp	r6, r4
 8000590:	dc01      	bgt.n	8000596 <_ZN9stdAnalog6BufferIchLh24EE5ShiftEhhh+0x1e>
 8000592:	42a5      	cmp	r5, r4
 8000594:	dd01      	ble.n	800059a <_ZN9stdAnalog6BufferIchLh24EE5ShiftEhhh+0x22>
 8000596:	2302      	movs	r3, #2
 8000598:	e7f6      	b.n	8000588 <_ZN9stdAnalog6BufferIchLh24EE5ShiftEhhh+0x10>
 800059a:	428a      	cmp	r2, r1
 800059c:	d0f5      	beq.n	800058a <_ZN9stdAnalog6BufferIchLh24EE5ShiftEhhh+0x12>
 800059e:	eb00 0401 	add.w	r4, r0, r1
 80005a2:	d80b      	bhi.n	80005bc <_ZN9stdAnalog6BufferIchLh24EE5ShiftEhhh+0x44>
 80005a4:	4410      	add	r0, r2
 80005a6:	4621      	mov	r1, r4
 80005a8:	2200      	movs	r2, #0
 80005aa:	b2d4      	uxtb	r4, r2
 80005ac:	42a3      	cmp	r3, r4
 80005ae:	d9ec      	bls.n	800058a <_ZN9stdAnalog6BufferIchLh24EE5ShiftEhhh+0x12>
 80005b0:	f811 4b01 	ldrb.w	r4, [r1], #1
 80005b4:	3201      	adds	r2, #1
 80005b6:	f800 4b01 	strb.w	r4, [r0], #1
 80005ba:	e7f6      	b.n	80005aa <_ZN9stdAnalog6BufferIchLh24EE5ShiftEhhh+0x32>
 80005bc:	4428      	add	r0, r5
 80005be:	42a0      	cmp	r0, r4
 80005c0:	d0e3      	beq.n	800058a <_ZN9stdAnalog6BufferIchLh24EE5ShiftEhhh+0x12>
 80005c2:	f810 5d01 	ldrb.w	r5, [r0, #-1]!
 80005c6:	1a43      	subs	r3, r0, r1
 80005c8:	549d      	strb	r5, [r3, r2]
 80005ca:	e7f8      	b.n	80005be <_ZN9stdAnalog6BufferIchLh24EE5ShiftEhhh+0x46>

080005cc <_ZN9stdAnalog6BufferIchLh24EE6ResizeEhc>:
 80005cc:	b538      	push	{r3, r4, r5, lr}
 80005ce:	460d      	mov	r5, r1
 80005d0:	2d18      	cmp	r5, #24
 80005d2:	4604      	mov	r4, r0
 80005d4:	4611      	mov	r1, r2
 80005d6:	d902      	bls.n	80005de <_ZN9stdAnalog6BufferIchLh24EE6ResizeEhc+0x12>
 80005d8:	2301      	movs	r3, #1
 80005da:	7643      	strb	r3, [r0, #25]
 80005dc:	bd38      	pop	{r3, r4, r5, pc}
 80005de:	7e00      	ldrb	r0, [r0, #24]
 80005e0:	4285      	cmp	r5, r0
 80005e2:	d904      	bls.n	80005ee <_ZN9stdAnalog6BufferIchLh24EE6ResizeEhc+0x22>
 80005e4:	1a2a      	subs	r2, r5, r0
 80005e6:	b2d2      	uxtb	r2, r2
 80005e8:	4420      	add	r0, r4
 80005ea:	f000 fd52 	bl	8001092 <memset>
 80005ee:	7625      	strb	r5, [r4, #24]
 80005f0:	e7f4      	b.n	80005dc <_ZN9stdAnalog6BufferIchLh24EE6ResizeEhc+0x10>
	...

080005f4 <_ZN8intToStr5ToDecItEEPKcT_hh>:
 80005f4:	e92d 43f8 	stmdb	sp!, {r3, r4, r5, r6, r7, r8, r9, lr}
 80005f8:	4607      	mov	r7, r0
 80005fa:	4837      	ldr	r0, [pc, #220]	@ (80006d8 <_ZN8intToStr5ToDecItEEPKcT_hh+0xe4>)
 80005fc:	4688      	mov	r8, r1
 80005fe:	4616      	mov	r6, r2
 8000600:	2405      	movs	r4, #5
 8000602:	f7ff ff97 	bl	8000534 <_ZN9stdAnalog6BufferIchLh24EE5ClearEv>
 8000606:	f04f 090a 	mov.w	r9, #10
 800060a:	4d33      	ldr	r5, [pc, #204]	@ (80006d8 <_ZN8intToStr5ToDecItEEPKcT_hh+0xe4>)
 800060c:	fbb7 f3f9 	udiv	r3, r7, r9
 8000610:	fb09 7113 	mls	r1, r9, r3, r7
 8000614:	3130      	adds	r1, #48	@ 0x30
 8000616:	4628      	mov	r0, r5
 8000618:	b2c9      	uxtb	r1, r1
 800061a:	3c01      	subs	r4, #1
 800061c:	b29f      	uxth	r7, r3
 800061e:	f7ff ff8e 	bl	800053e <_ZN9stdAnalog6BufferIchLh24EE8PushBackEc>
 8000622:	f014 04ff 	ands.w	r4, r4, #255	@ 0xff
 8000626:	d1f1      	bne.n	800060c <_ZN8intToStr5ToDecItEEPKcT_hh+0x18>
 8000628:	482b      	ldr	r0, [pc, #172]	@ (80006d8 <_ZN8intToStr5ToDecItEEPKcT_hh+0xe4>)
 800062a:	f7ff ff92 	bl	8000552 <_ZN9stdAnalog6BufferIchLh24EE7ReverseEv>
 800062e:	f018 0f08 	tst.w	r8, #8
 8000632:	d133      	bne.n	800069c <_ZN8intToStr5ToDecItEEPKcT_hh+0xa8>
 8000634:	f018 0f01 	tst.w	r8, #1
 8000638:	d135      	bne.n	80006a6 <_ZN8intToStr5ToDecItEEPKcT_hh+0xb2>
 800063a:	b176      	cbz	r6, 800065a <_ZN8intToStr5ToDecItEEPKcT_hh+0x66>
 800063c:	7e29      	ldrb	r1, [r5, #24]
 800063e:	428e      	cmp	r6, r1
 8000640:	d206      	bcs.n	8000650 <_ZN8intToStr5ToDecItEEPKcT_hh+0x5c>
 8000642:	1b89      	subs	r1, r1, r6
 8000644:	4633      	mov	r3, r6
 8000646:	2200      	movs	r2, #0
 8000648:	4823      	ldr	r0, [pc, #140]	@ (80006d8 <_ZN8intToStr5ToDecItEEPKcT_hh+0xe4>)
 800064a:	b2c9      	uxtb	r1, r1
 800064c:	f7ff ff94 	bl	8000578 <_ZN9stdAnalog6BufferIchLh24EE5ShiftEhhh>
 8000650:	2200      	movs	r2, #0
 8000652:	4631      	mov	r1, r6
 8000654:	4820      	ldr	r0, [pc, #128]	@ (80006d8 <_ZN8intToStr5ToDecItEEPKcT_hh+0xe4>)
 8000656:	f7ff ffb9 	bl	80005cc <_ZN9stdAnalog6BufferIchLh24EE6ResizeEhc>
 800065a:	2100      	movs	r1, #0
 800065c:	481e      	ldr	r0, [pc, #120]	@ (80006d8 <_ZN8intToStr5ToDecItEEPKcT_hh+0xe4>)
 800065e:	f7ff ff6e 	bl	800053e <_ZN9stdAnalog6BufferIchLh24EE8PushBackEc>
 8000662:	7e2b      	ldrb	r3, [r5, #24]
 8000664:	b90b      	cbnz	r3, 800066a <_ZN8intToStr5ToDecItEEPKcT_hh+0x76>
 8000666:	2302      	movs	r3, #2
 8000668:	766b      	strb	r3, [r5, #25]
 800066a:	481b      	ldr	r0, [pc, #108]	@ (80006d8 <_ZN8intToStr5ToDecItEEPKcT_hh+0xe4>)
 800066c:	e8bd 83f8 	ldmia.w	sp!, {r3, r4, r5, r6, r7, r8, r9, pc}
 8000670:	429a      	cmp	r2, r3
 8000672:	bf9a      	itte	ls
 8000674:	4639      	movls	r1, r7
 8000676:	7668      	strbls	r0, [r5, #25]
 8000678:	18e9      	addhi	r1, r5, r3
 800067a:	f891 e000 	ldrb.w	lr, [r1]
 800067e:	f1be 0f30 	cmp.w	lr, #48	@ 0x30
 8000682:	d1d7      	bne.n	8000634 <_ZN8intToStr5ToDecItEEPKcT_hh+0x40>
 8000684:	429a      	cmp	r2, r3
 8000686:	bf98      	it	ls
 8000688:	7668      	strbls	r0, [r5, #25]
 800068a:	3401      	adds	r4, #1
 800068c:	f881 c000 	strb.w	ip, [r1]
 8000690:	7e2a      	ldrb	r2, [r5, #24]
 8000692:	b2e3      	uxtb	r3, r4
 8000694:	1e51      	subs	r1, r2, #1
 8000696:	428b      	cmp	r3, r1
 8000698:	dbea      	blt.n	8000670 <_ZN8intToStr5ToDecItEEPKcT_hh+0x7c>
 800069a:	e7cb      	b.n	8000634 <_ZN8intToStr5ToDecItEEPKcT_hh+0x40>
 800069c:	2002      	movs	r0, #2
 800069e:	f04f 0c20 	mov.w	ip, #32
 80006a2:	4f0d      	ldr	r7, [pc, #52]	@ (80006d8 <_ZN8intToStr5ToDecItEEPKcT_hh+0xe4>)
 80006a4:	e7f4      	b.n	8000690 <_ZN8intToStr5ToDecItEEPKcT_hh+0x9c>
 80006a6:	2300      	movs	r3, #0
 80006a8:	7e2c      	ldrb	r4, [r5, #24]
 80006aa:	4a0b      	ldr	r2, [pc, #44]	@ (80006d8 <_ZN8intToStr5ToDecItEEPKcT_hh+0xe4>)
 80006ac:	b2d9      	uxtb	r1, r3
 80006ae:	42a1      	cmp	r1, r4
 80006b0:	d204      	bcs.n	80006bc <_ZN8intToStr5ToDecItEEPKcT_hh+0xc8>
 80006b2:	f812 0b01 	ldrb.w	r0, [r2], #1
 80006b6:	3301      	adds	r3, #1
 80006b8:	2820      	cmp	r0, #32
 80006ba:	d0f7      	beq.n	80006ac <_ZN8intToStr5ToDecItEEPKcT_hh+0xb8>
 80006bc:	1a64      	subs	r4, r4, r1
 80006be:	b2e4      	uxtb	r4, r4
 80006c0:	b121      	cbz	r1, 80006cc <_ZN8intToStr5ToDecItEEPKcT_hh+0xd8>
 80006c2:	4623      	mov	r3, r4
 80006c4:	2200      	movs	r2, #0
 80006c6:	4804      	ldr	r0, [pc, #16]	@ (80006d8 <_ZN8intToStr5ToDecItEEPKcT_hh+0xe4>)
 80006c8:	f7ff ff56 	bl	8000578 <_ZN9stdAnalog6BufferIchLh24EE5ShiftEhhh>
 80006cc:	2200      	movs	r2, #0
 80006ce:	4621      	mov	r1, r4
 80006d0:	4801      	ldr	r0, [pc, #4]	@ (80006d8 <_ZN8intToStr5ToDecItEEPKcT_hh+0xe4>)
 80006d2:	f7ff ff7b 	bl	80005cc <_ZN9stdAnalog6BufferIchLh24EE6ResizeEhc>
 80006d6:	e7b0      	b.n	800063a <_ZN8intToStr5ToDecItEEPKcT_hh+0x46>
 80006d8:	2000001c 	.word	0x2000001c

080006dc <_ZN9stdAnalog6BufferIchLh24EE9PushFrontEc>:
 80006dc:	b538      	push	{r3, r4, r5, lr}
 80006de:	7e03      	ldrb	r3, [r0, #24]
 80006e0:	4604      	mov	r4, r0
 80006e2:	2b17      	cmp	r3, #23
 80006e4:	460d      	mov	r5, r1
 80006e6:	d902      	bls.n	80006ee <_ZN9stdAnalog6BufferIchLh24EE9PushFrontEc+0x12>
 80006e8:	2301      	movs	r3, #1
 80006ea:	7643      	strb	r3, [r0, #25]
 80006ec:	bd38      	pop	{r3, r4, r5, pc}
 80006ee:	3301      	adds	r3, #1
 80006f0:	b2d9      	uxtb	r1, r3
 80006f2:	2200      	movs	r2, #0
 80006f4:	f7ff ff6a 	bl	80005cc <_ZN9stdAnalog6BufferIchLh24EE6ResizeEhc>
 80006f8:	7e23      	ldrb	r3, [r4, #24]
 80006fa:	2201      	movs	r2, #1
 80006fc:	3b01      	subs	r3, #1
 80006fe:	2100      	movs	r1, #0
 8000700:	4620      	mov	r0, r4
 8000702:	b2db      	uxtb	r3, r3
 8000704:	f7ff ff38 	bl	8000578 <_ZN9stdAnalog6BufferIchLh24EE5ShiftEhhh>
 8000708:	7025      	strb	r5, [r4, #0]
 800070a:	e7ef      	b.n	80006ec <_ZN9stdAnalog6BufferIchLh24EE9PushFrontEc+0x10>

0800070c <_ZN8intToStr5ToDecIsEEPKcT_hh>:
 800070c:	e92d 47f0 	stmdb	sp!, {r4, r5, r6, r7, r8, r9, sl, lr}
 8000710:	4681      	mov	r9, r0
 8000712:	483f      	ldr	r0, [pc, #252]	@ (8000810 <_ZN8intToStr5ToDecIsEEPKcT_hh+0x104>)
 8000714:	4688      	mov	r8, r1
 8000716:	4617      	mov	r7, r2
 8000718:	464e      	mov	r6, r9
 800071a:	f7ff ff0b 	bl	8000534 <_ZN9stdAnalog6BufferIchLh24EE5ClearEv>
 800071e:	2405      	movs	r4, #5
 8000720:	f04f 0a0a 	mov.w	sl, #10
 8000724:	4d3a      	ldr	r5, [pc, #232]	@ (8000810 <_ZN8intToStr5ToDecIsEEPKcT_hh+0x104>)
 8000726:	fb96 f3fa 	sdiv	r3, r6, sl
 800072a:	fb0a 6613 	mls	r6, sl, r3, r6
 800072e:	b236      	sxth	r6, r6
 8000730:	2e00      	cmp	r6, #0
 8000732:	bfb8      	it	lt
 8000734:	4276      	neglt	r6, r6
 8000736:	f106 0130 	add.w	r1, r6, #48	@ 0x30
 800073a:	4628      	mov	r0, r5
 800073c:	b2c9      	uxtb	r1, r1
 800073e:	3c01      	subs	r4, #1
 8000740:	b21e      	sxth	r6, r3
 8000742:	f7ff fefc 	bl	800053e <_ZN9stdAnalog6BufferIchLh24EE8PushBackEc>
 8000746:	f014 04ff 	ands.w	r4, r4, #255	@ 0xff
 800074a:	d1ec      	bne.n	8000726 <_ZN8intToStr5ToDecIsEEPKcT_hh+0x1a>
 800074c:	4830      	ldr	r0, [pc, #192]	@ (8000810 <_ZN8intToStr5ToDecIsEEPKcT_hh+0x104>)
 800074e:	f7ff ff00 	bl	8000552 <_ZN9stdAnalog6BufferIchLh24EE7ReverseEv>
 8000752:	f018 0f08 	tst.w	r8, #8
 8000756:	d13d      	bne.n	80007d4 <_ZN8intToStr5ToDecIsEEPKcT_hh+0xc8>
 8000758:	f018 0f01 	tst.w	r8, #1
 800075c:	d13f      	bne.n	80007de <_ZN8intToStr5ToDecIsEEPKcT_hh+0xd2>
 800075e:	b177      	cbz	r7, 800077e <_ZN8intToStr5ToDecIsEEPKcT_hh+0x72>
 8000760:	7e29      	ldrb	r1, [r5, #24]
 8000762:	428f      	cmp	r7, r1
 8000764:	d206      	bcs.n	8000774 <_ZN8intToStr5ToDecIsEEPKcT_hh+0x68>
 8000766:	1bc9      	subs	r1, r1, r7
 8000768:	463b      	mov	r3, r7
 800076a:	2200      	movs	r2, #0
 800076c:	4828      	ldr	r0, [pc, #160]	@ (8000810 <_ZN8intToStr5ToDecIsEEPKcT_hh+0x104>)
 800076e:	b2c9      	uxtb	r1, r1
 8000770:	f7ff ff02 	bl	8000578 <_ZN9stdAnalog6BufferIchLh24EE5ShiftEhhh>
 8000774:	2200      	movs	r2, #0
 8000776:	4639      	mov	r1, r7
 8000778:	4825      	ldr	r0, [pc, #148]	@ (8000810 <_ZN8intToStr5ToDecIsEEPKcT_hh+0x104>)
 800077a:	f7ff ff27 	bl	80005cc <_ZN9stdAnalog6BufferIchLh24EE6ResizeEhc>
 800077e:	f018 0f10 	tst.w	r8, #16
 8000782:	d006      	beq.n	8000792 <_ZN8intToStr5ToDecIsEEPKcT_hh+0x86>
 8000784:	f1b9 0f00 	cmp.w	r9, #0
 8000788:	da03      	bge.n	8000792 <_ZN8intToStr5ToDecIsEEPKcT_hh+0x86>
 800078a:	212d      	movs	r1, #45	@ 0x2d
 800078c:	4820      	ldr	r0, [pc, #128]	@ (8000810 <_ZN8intToStr5ToDecIsEEPKcT_hh+0x104>)
 800078e:	f7ff ffa5 	bl	80006dc <_ZN9stdAnalog6BufferIchLh24EE9PushFrontEc>
 8000792:	2100      	movs	r1, #0
 8000794:	481e      	ldr	r0, [pc, #120]	@ (8000810 <_ZN8intToStr5ToDecIsEEPKcT_hh+0x104>)
 8000796:	f7ff fed2 	bl	800053e <_ZN9stdAnalog6BufferIchLh24EE8PushBackEc>
 800079a:	7e2b      	ldrb	r3, [r5, #24]
 800079c:	b90b      	cbnz	r3, 80007a2 <_ZN8intToStr5ToDecIsEEPKcT_hh+0x96>
 800079e:	2302      	movs	r3, #2
 80007a0:	766b      	strb	r3, [r5, #25]
 80007a2:	481b      	ldr	r0, [pc, #108]	@ (8000810 <_ZN8intToStr5ToDecIsEEPKcT_hh+0x104>)
 80007a4:	e8bd 87f0 	ldmia.w	sp!, {r4, r5, r6, r7, r8, r9, sl, pc}
 80007a8:	429a      	cmp	r2, r3
 80007aa:	bf9a      	itte	ls
 80007ac:	4631      	movls	r1, r6
 80007ae:	7668      	strbls	r0, [r5, #25]
 80007b0:	18e9      	addhi	r1, r5, r3
 80007b2:	f891 e000 	ldrb.w	lr, [r1]
 80007b6:	f1be 0f30 	cmp.w	lr, #48	@ 0x30
 80007ba:	d1cd      	bne.n	8000758 <_ZN8intToStr5ToDecIsEEPKcT_hh+0x4c>
 80007bc:	429a      	cmp	r2, r3
 80007be:	bf98      	it	ls
 80007c0:	7668      	strbls	r0, [r5, #25]
 80007c2:	3401      	adds	r4, #1
 80007c4:	f881 c000 	strb.w	ip, [r1]
 80007c8:	7e2a      	ldrb	r2, [r5, #24]
 80007ca:	b2e3      	uxtb	r3, r4
 80007cc:	1e51      	subs	r1, r2, #1
 80007ce:	428b      	cmp	r3, r1
 80007d0:	dbea      	blt.n	80007a8 <_ZN8intToStr5ToDecIsEEPKcT_hh+0x9c>
 80007d2:	e7c1      	b.n	8000758 <_ZN8intToStr5ToDecIsEEPKcT_hh+0x4c>
 80007d4:	2002      	movs	r0, #2
 80007d6:	f04f 0c20 	mov.w	ip, #32
 80007da:	4e0d      	ldr	r6, [pc, #52]	@ (8000810 <_ZN8intToStr5ToDecIsEEPKcT_hh+0x104>)
 80007dc:	e7f4      	b.n	80007c8 <_ZN8intToStr5ToDecIsEEPKcT_hh+0xbc>
 80007de:	2300      	movs	r3, #0
 80007e0:	7e2c      	ldrb	r4, [r5, #24]
 80007e2:	4a0b      	ldr	r2, [pc, #44]	@ (8000810 <_ZN8intToStr5ToDecIsEEPKcT_hh+0x104>)
 80007e4:	b2d9      	uxtb	r1, r3
 80007e6:	42a1      	cmp	r1, r4
 80007e8:	d204      	bcs.n	80007f4 <_ZN8intToStr5ToDecIsEEPKcT_hh+0xe8>
 80007ea:	f812 0b01 	ldrb.w	r0, [r2], #1
 80007ee:	3301      	adds	r3, #1
 80007f0:	2820      	cmp	r0, #32
 80007f2:	d0f7      	beq.n	80007e4 <_ZN8intToStr5ToDecIsEEPKcT_hh+0xd8>
 80007f4:	1a64      	subs	r4, r4, r1
 80007f6:	b2e4      	uxtb	r4, r4
 80007f8:	b121      	cbz	r1, 8000804 <_ZN8intToStr5ToDecIsEEPKcT_hh+0xf8>
 80007fa:	4623      	mov	r3, r4
 80007fc:	2200      	movs	r2, #0
 80007fe:	4804      	ldr	r0, [pc, #16]	@ (8000810 <_ZN8intToStr5ToDecIsEEPKcT_hh+0x104>)
 8000800:	f7ff feba 	bl	8000578 <_ZN9stdAnalog6BufferIchLh24EE5ShiftEhhh>
 8000804:	2200      	movs	r2, #0
 8000806:	4621      	mov	r1, r4
 8000808:	4801      	ldr	r0, [pc, #4]	@ (8000810 <_ZN8intToStr5ToDecIsEEPKcT_hh+0x104>)
 800080a:	f7ff fedf 	bl	80005cc <_ZN9stdAnalog6BufferIchLh24EE6ResizeEhc>
 800080e:	e7a6      	b.n	800075e <_ZN8intToStr5ToDecIsEEPKcT_hh+0x52>
 8000810:	2000001c 	.word	0x2000001c

08000814 <_GLOBAL__sub_I__ZN8intToStr5ToHexIhEEPKcT_>:
 8000814:	b508      	push	{r3, lr}
 8000816:	2300      	movs	r3, #0
 8000818:	4802      	ldr	r0, [pc, #8]	@ (8000824 <_GLOBAL__sub_I__ZN8intToStr5ToHexIhEEPKcT_+0x10>)
 800081a:	7603      	strb	r3, [r0, #24]
 800081c:	7643      	strb	r3, [r0, #25]
 800081e:	f7ff fe89 	bl	8000534 <_ZN9stdAnalog6BufferIchLh24EE5ClearEv>
 8000822:	bd08      	pop	{r3, pc}
 8000824:	2000001c 	.word	0x2000001c

08000828 <_ZN9LcdScreen5LcdRSEh>:
 8000828:	4a04      	ldr	r2, [pc, #16]	@ (800083c <_ZN9LcdScreen5LcdRSEh+0x14>)
 800082a:	68d3      	ldr	r3, [r2, #12]
 800082c:	b118      	cbz	r0, 8000836 <_ZN9LcdScreen5LcdRSEh+0xe>
 800082e:	f443 6380 	orr.w	r3, r3, #1024	@ 0x400
 8000832:	60d3      	str	r3, [r2, #12]
 8000834:	4770      	bx	lr
 8000836:	f423 6380 	bic.w	r3, r3, #1024	@ 0x400
 800083a:	e7fa      	b.n	8000832 <_ZN9LcdScreen5LcdRSEh+0xa>
 800083c:	40010c00 	.word	0x40010c00

08000840 <_ZN9LcdScreen5LcdRWEh>:
 8000840:	4a04      	ldr	r2, [pc, #16]	@ (8000854 <_ZN9LcdScreen5LcdRWEh+0x14>)
 8000842:	68d3      	ldr	r3, [r2, #12]
 8000844:	b118      	cbz	r0, 800084e <_ZN9LcdScreen5LcdRWEh+0xe>
 8000846:	f443 6300 	orr.w	r3, r3, #2048	@ 0x800
 800084a:	60d3      	str	r3, [r2, #12]
 800084c:	4770      	bx	lr
 800084e:	f423 6300 	bic.w	r3, r3, #2048	@ 0x800
 8000852:	e7fa      	b.n	800084a <_ZN9LcdScreen5LcdRWEh+0xa>
 8000854:	40010c00 	.word	0x40010c00

08000858 <_ZN9LcdScreen4LcdEEh>:
 8000858:	4a04      	ldr	r2, [pc, #16]	@ (800086c <_ZN9LcdScreen4LcdEEh+0x14>)
 800085a:	68d3      	ldr	r3, [r2, #12]
 800085c:	b118      	cbz	r0, 8000866 <_ZN9LcdScreen4LcdEEh+0xe>
 800085e:	f443 5380 	orr.w	r3, r3, #4096	@ 0x1000
 8000862:	60d3      	str	r3, [r2, #12]
 8000864:	4770      	bx	lr
 8000866:	f423 5380 	bic.w	r3, r3, #4096	@ 0x1000
 800086a:	e7fa      	b.n	8000862 <_ZN9LcdScreen4LcdEEh+0xa>
 800086c:	40010c00 	.word	0x40010c00

08000870 <_ZN9LcdScreen11LcdOut4bitsEh>:
 8000870:	490b      	ldr	r1, [pc, #44]	@ (80008a0 <_ZN9LcdScreen11LcdOut4bitsEh+0x30>)
 8000872:	f000 0308 	and.w	r3, r0, #8
 8000876:	68ca      	ldr	r2, [r1, #12]
 8000878:	f422 4260 	bic.w	r2, r2, #57344	@ 0xe000
 800087c:	f022 0208 	bic.w	r2, r2, #8
 8000880:	4313      	orrs	r3, r2
 8000882:	0342      	lsls	r2, r0, #13
 8000884:	f402 5200 	and.w	r2, r2, #8192	@ 0x2000
 8000888:	4313      	orrs	r3, r2
 800088a:	0382      	lsls	r2, r0, #14
 800088c:	f402 4200 	and.w	r2, r2, #32768	@ 0x8000
 8000890:	0300      	lsls	r0, r0, #12
 8000892:	4313      	orrs	r3, r2
 8000894:	f400 4080 	and.w	r0, r0, #16384	@ 0x4000
 8000898:	4318      	orrs	r0, r3
 800089a:	60c8      	str	r0, [r1, #12]
 800089c:	4770      	bx	lr
 800089e:	bf00      	nop
 80008a0:	40010c00 	.word	0x40010c00

080008a4 <_ZN9LcdScreen10LcdIn4bitsEv>:
 80008a4:	4b07      	ldr	r3, [pc, #28]	@ (80008c4 <_ZN9LcdScreen10LcdIn4bitsEv+0x20>)
 80008a6:	689b      	ldr	r3, [r3, #8]
 80008a8:	0b9a      	lsrs	r2, r3, #14
 80008aa:	f3c3 3040 	ubfx	r0, r3, #13, #1
 80008ae:	f002 0202 	and.w	r2, r2, #2
 80008b2:	4310      	orrs	r0, r2
 80008b4:	f003 0208 	and.w	r2, r3, #8
 80008b8:	0b1b      	lsrs	r3, r3, #12
 80008ba:	4310      	orrs	r0, r2
 80008bc:	f003 0304 	and.w	r3, r3, #4
 80008c0:	4318      	orrs	r0, r3
 80008c2:	4770      	bx	lr
 80008c4:	40010c00 	.word	0x40010c00

080008c8 <_ZN9LcdScreen13LcdSetDataOutEv>:
 80008c8:	b510      	push	{r4, lr}
 80008ca:	4c09      	ldr	r4, [pc, #36]	@ (80008f0 <_ZN9LcdScreen13LcdSetDataOutEv+0x28>)
 80008cc:	210d      	movs	r1, #13
 80008ce:	4620      	mov	r0, r4
 80008d0:	f7ff fd26 	bl	8000320 <_ZN16GpioConfigurator18SetGpioOutPushPullEP12GPIO_TypeDefh>
 80008d4:	4620      	mov	r0, r4
 80008d6:	210f      	movs	r1, #15
 80008d8:	f7ff fd22 	bl	8000320 <_ZN16GpioConfigurator18SetGpioOutPushPullEP12GPIO_TypeDefh>
 80008dc:	4620      	mov	r0, r4
 80008de:	210e      	movs	r1, #14
 80008e0:	f7ff fd1e 	bl	8000320 <_ZN16GpioConfigurator18SetGpioOutPushPullEP12GPIO_TypeDefh>
 80008e4:	4620      	mov	r0, r4
 80008e6:	e8bd 4010 	ldmia.w	sp!, {r4, lr}
 80008ea:	2103      	movs	r1, #3
 80008ec:	f7ff bd18 	b.w	8000320 <_ZN16GpioConfigurator18SetGpioOutPushPullEP12GPIO_TypeDefh>
 80008f0:	40010c00 	.word	0x40010c00

080008f4 <_ZN9LcdScreen12LcdSetDataInEv>:
 80008f4:	b510      	push	{r4, lr}
 80008f6:	4c09      	ldr	r4, [pc, #36]	@ (800091c <_ZN9LcdScreen12LcdSetDataInEv+0x28>)
 80008f8:	210d      	movs	r1, #13
 80008fa:	4620      	mov	r0, r4
 80008fc:	f7ff fd4e 	bl	800039c <_ZN16GpioConfigurator17SetGpioInFloatingEP12GPIO_TypeDefh>
 8000900:	4620      	mov	r0, r4
 8000902:	210f      	movs	r1, #15
 8000904:	f7ff fd4a 	bl	800039c <_ZN16GpioConfigurator17SetGpioInFloatingEP12GPIO_TypeDefh>
 8000908:	4620      	mov	r0, r4
 800090a:	210e      	movs	r1, #14
 800090c:	f7ff fd46 	bl	800039c <_ZN16GpioConfigurator17SetGpioInFloatingEP12GPIO_TypeDefh>
 8000910:	4620      	mov	r0, r4
 8000912:	e8bd 4010 	ldmia.w	sp!, {r4, lr}
 8000916:	2103      	movs	r1, #3
 8000918:	f7ff bd40 	b.w	800039c <_ZN16GpioConfigurator17SetGpioInFloatingEP12GPIO_TypeDefh>
 800091c:	40010c00 	.word	0x40010c00

08000920 <_ZN9LcdScreen15Lcd4BitWideReadEhh>:
 8000920:	b538      	push	{r3, r4, r5, lr}
 8000922:	4605      	mov	r5, r0
 8000924:	460c      	mov	r4, r1
 8000926:	f7ff ffe5 	bl	80008f4 <_ZN9LcdScreen12LcdSetDataInEv>
 800092a:	4628      	mov	r0, r5
 800092c:	f7ff ff7c 	bl	8000828 <_ZN9LcdScreen5LcdRSEh>
 8000930:	4620      	mov	r0, r4
 8000932:	f7ff ff85 	bl	8000840 <_ZN9LcdScreen5LcdRWEh>
 8000936:	2001      	movs	r0, #1
 8000938:	f7ff ff8e 	bl	8000858 <_ZN9LcdScreen4LcdEEh>
 800093c:	f7ff fc44 	bl	80001c8 <_ZN10DelayTimer13DelayMicroSecEt>
 8000940:	f7ff ffb0 	bl	80008a4 <_ZN9LcdScreen10LcdIn4bitsEv>
 8000944:	0104      	lsls	r4, r0, #4
 8000946:	2000      	movs	r0, #0
 8000948:	f7ff ff86 	bl	8000858 <_ZN9LcdScreen4LcdEEh>
 800094c:	2001      	movs	r0, #1
 800094e:	f7ff fc3b 	bl	80001c8 <_ZN10DelayTimer13DelayMicroSecEt>
 8000952:	2001      	movs	r0, #1
 8000954:	f7ff ff80 	bl	8000858 <_ZN9LcdScreen4LcdEEh>
 8000958:	f7ff fc36 	bl	80001c8 <_ZN10DelayTimer13DelayMicroSecEt>
 800095c:	f7ff ffa2 	bl	80008a4 <_ZN9LcdScreen10LcdIn4bitsEv>
 8000960:	b2e4      	uxtb	r4, r4
 8000962:	4404      	add	r4, r0
 8000964:	2000      	movs	r0, #0
 8000966:	f7ff ff77 	bl	8000858 <_ZN9LcdScreen4LcdEEh>
 800096a:	b2e4      	uxtb	r4, r4
 800096c:	2001      	movs	r0, #1
 800096e:	f7ff fc2b 	bl	80001c8 <_ZN10DelayTimer13DelayMicroSecEt>
 8000972:	4620      	mov	r0, r4
 8000974:	bd38      	pop	{r3, r4, r5, pc}

08000976 <_ZN9LcdScreen6IsBusyEv>:
 8000976:	2101      	movs	r1, #1
 8000978:	b508      	push	{r3, lr}
 800097a:	2000      	movs	r0, #0
 800097c:	f7ff ffd0 	bl	8000920 <_ZN9LcdScreen15Lcd4BitWideReadEhh>
 8000980:	f3c0 10c0 	ubfx	r0, r0, #7, #1
 8000984:	bd08      	pop	{r3, pc}

08000986 <_ZN9LcdScreen16Lcd4BitWideWriteEhhh>:
 8000986:	b510      	push	{r4, lr}
 8000988:	4614      	mov	r4, r2
 800098a:	f7ff ff4d 	bl	8000828 <_ZN9LcdScreen5LcdRSEh>
 800098e:	4608      	mov	r0, r1
 8000990:	f7ff ff56 	bl	8000840 <_ZN9LcdScreen5LcdRWEh>
 8000994:	2001      	movs	r0, #1
 8000996:	f7ff ff5f 	bl	8000858 <_ZN9LcdScreen4LcdEEh>
 800099a:	f7ff ff95 	bl	80008c8 <_ZN9LcdScreen13LcdSetDataOutEv>
 800099e:	0920      	lsrs	r0, r4, #4
 80009a0:	f7ff ff66 	bl	8000870 <_ZN9LcdScreen11LcdOut4bitsEh>
 80009a4:	2001      	movs	r0, #1
 80009a6:	f7ff fc0f 	bl	80001c8 <_ZN10DelayTimer13DelayMicroSecEt>
 80009aa:	2000      	movs	r0, #0
 80009ac:	f7ff ff54 	bl	8000858 <_ZN9LcdScreen4LcdEEh>
 80009b0:	2001      	movs	r0, #1
 80009b2:	f7ff fc09 	bl	80001c8 <_ZN10DelayTimer13DelayMicroSecEt>
 80009b6:	2001      	movs	r0, #1
 80009b8:	f7ff ff4e 	bl	8000858 <_ZN9LcdScreen4LcdEEh>
 80009bc:	f004 000f 	and.w	r0, r4, #15
 80009c0:	f7ff ff56 	bl	8000870 <_ZN9LcdScreen11LcdOut4bitsEh>
 80009c4:	2001      	movs	r0, #1
 80009c6:	f7ff fbff 	bl	80001c8 <_ZN10DelayTimer13DelayMicroSecEt>
 80009ca:	2000      	movs	r0, #0
 80009cc:	f7ff ff44 	bl	8000858 <_ZN9LcdScreen4LcdEEh>
 80009d0:	2001      	movs	r0, #1
 80009d2:	f7ff fbf9 	bl	80001c8 <_ZN10DelayTimer13DelayMicroSecEt>
 80009d6:	e8bd 4010 	ldmia.w	sp!, {r4, lr}
 80009da:	f7ff bf8b 	b.w	80008f4 <_ZN9LcdScreen12LcdSetDataInEv>

080009de <_ZN9LcdScreen20Lcd8BitWideFakeWriteEhhh>:
 80009de:	b510      	push	{r4, lr}
 80009e0:	4614      	mov	r4, r2
 80009e2:	f7ff ff21 	bl	8000828 <_ZN9LcdScreen5LcdRSEh>
 80009e6:	4608      	mov	r0, r1
 80009e8:	f7ff ff2a 	bl	8000840 <_ZN9LcdScreen5LcdRWEh>
 80009ec:	2001      	movs	r0, #1
 80009ee:	f7ff ff33 	bl	8000858 <_ZN9LcdScreen4LcdEEh>
 80009f2:	f7ff ff69 	bl	80008c8 <_ZN9LcdScreen13LcdSetDataOutEv>
 80009f6:	0920      	lsrs	r0, r4, #4
 80009f8:	f7ff ff3a 	bl	8000870 <_ZN9LcdScreen11LcdOut4bitsEh>
 80009fc:	2001      	movs	r0, #1
 80009fe:	f7ff fbe3 	bl	80001c8 <_ZN10DelayTimer13DelayMicroSecEt>
 8000a02:	2000      	movs	r0, #0
 8000a04:	f7ff ff28 	bl	8000858 <_ZN9LcdScreen4LcdEEh>
 8000a08:	2001      	movs	r0, #1
 8000a0a:	f7ff fbdd 	bl	80001c8 <_ZN10DelayTimer13DelayMicroSecEt>
 8000a0e:	e8bd 4010 	ldmia.w	sp!, {r4, lr}
 8000a12:	f7ff bf6f 	b.w	80008f4 <_ZN9LcdScreen12LcdSetDataInEv>

08000a16 <_ZN9LcdScreen11WaitForBusyEv>:
 8000a16:	b508      	push	{r3, lr}
 8000a18:	f7ff ffad 	bl	8000976 <_ZN9LcdScreen6IsBusyEv>
 8000a1c:	2800      	cmp	r0, #0
 8000a1e:	d1fb      	bne.n	8000a18 <_ZN9LcdScreen11WaitForBusyEv+0x2>
 8000a20:	bd08      	pop	{r3, pc}
	...

08000a24 <_ZN9LcdScreen7LcdInitEv>:
 8000a24:	b510      	push	{r4, lr}
 8000a26:	4c3d      	ldr	r4, [pc, #244]	@ (8000b1c <_ZN9LcdScreen7LcdInitEv+0xf8>)
 8000a28:	4620      	mov	r0, r4
 8000a2a:	f7ff fc4d 	bl	80002c8 <_ZN16GpioConfigurator15GpioClockEnableEP12GPIO_TypeDef>
 8000a2e:	4a3c      	ldr	r2, [pc, #240]	@ (8000b20 <_ZN9LcdScreen7LcdInitEv+0xfc>)
 8000a30:	2000      	movs	r0, #0
 8000a32:	6853      	ldr	r3, [r2, #4]
 8000a34:	f023 63e0 	bic.w	r3, r3, #117440512	@ 0x7000000
 8000a38:	f043 7300 	orr.w	r3, r3, #33554432	@ 0x2000000
 8000a3c:	6053      	str	r3, [r2, #4]
 8000a3e:	f7ff fef3 	bl	8000828 <_ZN9LcdScreen5LcdRSEh>
 8000a42:	f7ff fefd 	bl	8000840 <_ZN9LcdScreen5LcdRWEh>
 8000a46:	f7ff ff07 	bl	8000858 <_ZN9LcdScreen4LcdEEh>
 8000a4a:	f7ff ff11 	bl	8000870 <_ZN9LcdScreen11LcdOut4bitsEh>
 8000a4e:	4620      	mov	r0, r4
 8000a50:	210a      	movs	r1, #10
 8000a52:	f7ff fc65 	bl	8000320 <_ZN16GpioConfigurator18SetGpioOutPushPullEP12GPIO_TypeDefh>
 8000a56:	4620      	mov	r0, r4
 8000a58:	210b      	movs	r1, #11
 8000a5a:	f7ff fc61 	bl	8000320 <_ZN16GpioConfigurator18SetGpioOutPushPullEP12GPIO_TypeDefh>
 8000a5e:	210c      	movs	r1, #12
 8000a60:	4620      	mov	r0, r4
 8000a62:	f7ff fc5d 	bl	8000320 <_ZN16GpioConfigurator18SetGpioOutPushPullEP12GPIO_TypeDefh>
 8000a66:	f7ff ff2f 	bl	80008c8 <_ZN9LcdScreen13LcdSetDataOutEv>
 8000a6a:	f649 4040 	movw	r0, #40000	@ 0x9c40
 8000a6e:	f7ff fbab 	bl	80001c8 <_ZN10DelayTimer13DelayMicroSecEt>
 8000a72:	2100      	movs	r1, #0
 8000a74:	2230      	movs	r2, #48	@ 0x30
 8000a76:	4608      	mov	r0, r1
 8000a78:	f7ff ffb1 	bl	80009de <_ZN9LcdScreen20Lcd8BitWideFakeWriteEhhh>
 8000a7c:	f241 0004 	movw	r0, #4100	@ 0x1004
 8000a80:	f7ff fba2 	bl	80001c8 <_ZN10DelayTimer13DelayMicroSecEt>
 8000a84:	2100      	movs	r1, #0
 8000a86:	2230      	movs	r2, #48	@ 0x30
 8000a88:	4608      	mov	r0, r1
 8000a8a:	f7ff ffa8 	bl	80009de <_ZN9LcdScreen20Lcd8BitWideFakeWriteEhhh>
 8000a8e:	2064      	movs	r0, #100	@ 0x64
 8000a90:	f7ff fb9a 	bl	80001c8 <_ZN10DelayTimer13DelayMicroSecEt>
 8000a94:	2100      	movs	r1, #0
 8000a96:	2230      	movs	r2, #48	@ 0x30
 8000a98:	4608      	mov	r0, r1
 8000a9a:	f7ff ffa0 	bl	80009de <_ZN9LcdScreen20Lcd8BitWideFakeWriteEhhh>
 8000a9e:	2064      	movs	r0, #100	@ 0x64
 8000aa0:	f7ff fb92 	bl	80001c8 <_ZN10DelayTimer13DelayMicroSecEt>
 8000aa4:	2100      	movs	r1, #0
 8000aa6:	2220      	movs	r2, #32
 8000aa8:	4608      	mov	r0, r1
 8000aaa:	f7ff ff98 	bl	80009de <_ZN9LcdScreen20Lcd8BitWideFakeWriteEhhh>
 8000aae:	2064      	movs	r0, #100	@ 0x64
 8000ab0:	f7ff fb8a 	bl	80001c8 <_ZN10DelayTimer13DelayMicroSecEt>
 8000ab4:	2100      	movs	r1, #0
 8000ab6:	2228      	movs	r2, #40	@ 0x28
 8000ab8:	4608      	mov	r0, r1
 8000aba:	f7ff ff64 	bl	8000986 <_ZN9LcdScreen16Lcd4BitWideWriteEhhh>
 8000abe:	2027      	movs	r0, #39	@ 0x27
 8000ac0:	f7ff fb82 	bl	80001c8 <_ZN10DelayTimer13DelayMicroSecEt>
 8000ac4:	2100      	movs	r1, #0
 8000ac6:	2228      	movs	r2, #40	@ 0x28
 8000ac8:	4608      	mov	r0, r1
 8000aca:	f7ff ff5c 	bl	8000986 <_ZN9LcdScreen16Lcd4BitWideWriteEhhh>
 8000ace:	f7ff ffa2 	bl	8000a16 <_ZN9LcdScreen11WaitForBusyEv>
 8000ad2:	2027      	movs	r0, #39	@ 0x27
 8000ad4:	f7ff fb78 	bl	80001c8 <_ZN10DelayTimer13DelayMicroSecEt>
 8000ad8:	2100      	movs	r1, #0
 8000ada:	220c      	movs	r2, #12
 8000adc:	4608      	mov	r0, r1
 8000ade:	f7ff ff52 	bl	8000986 <_ZN9LcdScreen16Lcd4BitWideWriteEhhh>
 8000ae2:	f7ff ff98 	bl	8000a16 <_ZN9LcdScreen11WaitForBusyEv>
 8000ae6:	2027      	movs	r0, #39	@ 0x27
 8000ae8:	f7ff fb6e 	bl	80001c8 <_ZN10DelayTimer13DelayMicroSecEt>
 8000aec:	2100      	movs	r1, #0
 8000aee:	2201      	movs	r2, #1
 8000af0:	4608      	mov	r0, r1
 8000af2:	f7ff ff48 	bl	8000986 <_ZN9LcdScreen16Lcd4BitWideWriteEhhh>
 8000af6:	f7ff ff8e 	bl	8000a16 <_ZN9LcdScreen11WaitForBusyEv>
 8000afa:	f240 50fa 	movw	r0, #1530	@ 0x5fa
 8000afe:	f7ff fb63 	bl	80001c8 <_ZN10DelayTimer13DelayMicroSecEt>
 8000b02:	2100      	movs	r1, #0
 8000b04:	2206      	movs	r2, #6
 8000b06:	4608      	mov	r0, r1
 8000b08:	f7ff ff3d 	bl	8000986 <_ZN9LcdScreen16Lcd4BitWideWriteEhhh>
 8000b0c:	2027      	movs	r0, #39	@ 0x27
 8000b0e:	f7ff fb5b 	bl	80001c8 <_ZN10DelayTimer13DelayMicroSecEt>
 8000b12:	e8bd 4010 	ldmia.w	sp!, {r4, lr}
 8000b16:	f7ff bf7e 	b.w	8000a16 <_ZN9LcdScreen11WaitForBusyEv>
 8000b1a:	bf00      	nop
 8000b1c:	40010c00 	.word	0x40010c00
 8000b20:	40010000 	.word	0x40010000

08000b24 <_ZN9LcdScreen8LcdClearEv>:
 8000b24:	b508      	push	{r3, lr}
 8000b26:	f7ff ff76 	bl	8000a16 <_ZN9LcdScreen11WaitForBusyEv>
 8000b2a:	2100      	movs	r1, #0
 8000b2c:	2201      	movs	r2, #1
 8000b2e:	4608      	mov	r0, r1
 8000b30:	f7ff ff29 	bl	8000986 <_ZN9LcdScreen16Lcd4BitWideWriteEhhh>
 8000b34:	e8bd 4008 	ldmia.w	sp!, {r3, lr}
 8000b38:	2027      	movs	r0, #39	@ 0x27
 8000b3a:	f7ff bb45 	b.w	80001c8 <_ZN10DelayTimer13DelayMicroSecEt>

08000b3e <_ZN9LcdScreen12LcdPrintCharEh>:
 8000b3e:	b510      	push	{r4, lr}
 8000b40:	4604      	mov	r4, r0
 8000b42:	f7ff ff68 	bl	8000a16 <_ZN9LcdScreen11WaitForBusyEv>
 8000b46:	4622      	mov	r2, r4
 8000b48:	2001      	movs	r0, #1
 8000b4a:	2100      	movs	r1, #0
 8000b4c:	f7ff ff1b 	bl	8000986 <_ZN9LcdScreen16Lcd4BitWideWriteEhhh>
 8000b50:	e8bd 4010 	ldmia.w	sp!, {r4, lr}
 8000b54:	202b      	movs	r0, #43	@ 0x2b
 8000b56:	f7ff bb37 	b.w	80001c8 <_ZN10DelayTimer13DelayMicroSecEt>

08000b5a <_ZN9LcdScreen8LcdPrintEPc>:
 8000b5a:	b510      	push	{r4, lr}
 8000b5c:	1e44      	subs	r4, r0, #1
 8000b5e:	f814 0f01 	ldrb.w	r0, [r4, #1]!
 8000b62:	b900      	cbnz	r0, 8000b66 <_ZN9LcdScreen8LcdPrintEPc+0xc>
 8000b64:	bd10      	pop	{r4, pc}
 8000b66:	f7ff ffea 	bl	8000b3e <_ZN9LcdScreen12LcdPrintCharEh>
 8000b6a:	e7f8      	b.n	8000b5e <_ZN9LcdScreen8LcdPrintEPc+0x4>

08000b6c <_ZN12PowerControl9PowerHoldEv>:
 8000b6c:	4803      	ldr	r0, [pc, #12]	@ (8000b7c <_ZN12PowerControl9PowerHoldEv+0x10>)
 8000b6e:	2105      	movs	r1, #5
 8000b70:	6903      	ldr	r3, [r0, #16]
 8000b72:	f043 0320 	orr.w	r3, r3, #32
 8000b76:	6103      	str	r3, [r0, #16]
 8000b78:	f7ff bbd2 	b.w	8000320 <_ZN16GpioConfigurator18SetGpioOutPushPullEP12GPIO_TypeDefh>
 8000b7c:	40010800 	.word	0x40010800

08000b80 <_ZN12PowerControl11PowerUnholdEv>:
 8000b80:	4803      	ldr	r0, [pc, #12]	@ (8000b90 <_ZN12PowerControl11PowerUnholdEv+0x10>)
 8000b82:	2105      	movs	r1, #5
 8000b84:	6943      	ldr	r3, [r0, #20]
 8000b86:	f043 0320 	orr.w	r3, r3, #32
 8000b8a:	6143      	str	r3, [r0, #20]
 8000b8c:	f7ff bc06 	b.w	800039c <_ZN16GpioConfigurator17SetGpioInFloatingEP12GPIO_TypeDefh>
 8000b90:	40010800 	.word	0x40010800

08000b94 <_ZN12PowerControl4InitEv>:
 8000b94:	b538      	push	{r3, r4, r5, lr}
 8000b96:	4604      	mov	r4, r0
 8000b98:	4d06      	ldr	r5, [pc, #24]	@ (8000bb4 <_ZN12PowerControl4InitEv+0x20>)
 8000b9a:	4628      	mov	r0, r5
 8000b9c:	f7ff fb94 	bl	80002c8 <_ZN16GpioConfigurator15GpioClockEnableEP12GPIO_TypeDef>
 8000ba0:	4628      	mov	r0, r5
 8000ba2:	2105      	movs	r1, #5
 8000ba4:	f7ff fbbc 	bl	8000320 <_ZN16GpioConfigurator18SetGpioOutPushPullEP12GPIO_TypeDefh>
 8000ba8:	4620      	mov	r0, r4
 8000baa:	e8bd 4038 	ldmia.w	sp!, {r3, r4, r5, lr}
 8000bae:	f7ff bfe7 	b.w	8000b80 <_ZN12PowerControl11PowerUnholdEv>
 8000bb2:	bf00      	nop
 8000bb4:	40010800 	.word	0x40010800

08000bb8 <_ZN12PowerControlC1Ev>:
 8000bb8:	b510      	push	{r4, lr}
 8000bba:	4604      	mov	r4, r0
 8000bbc:	f7ff ffea 	bl	8000b94 <_ZN12PowerControl4InitEv>
 8000bc0:	4620      	mov	r0, r4
 8000bc2:	bd10      	pop	{r4, pc}

08000bc4 <_Z10InitClocksv>:
 8000bc4:	4a07      	ldr	r2, [pc, #28]	@ (8000be4 <_Z10InitClocksv+0x20>)
 8000bc6:	6813      	ldr	r3, [r2, #0]
 8000bc8:	f023 7386 	bic.w	r3, r3, #17563648	@ 0x10c0000
 8000bcc:	f423 3380 	bic.w	r3, r3, #65536	@ 0x10000
 8000bd0:	f443 3380 	orr.w	r3, r3, #65536	@ 0x10000
 8000bd4:	6013      	str	r3, [r2, #0]
 8000bd6:	6851      	ldr	r1, [r2, #4]
 8000bd8:	4b03      	ldr	r3, [pc, #12]	@ (8000be8 <_Z10InitClocksv+0x24>)
 8000bda:	400b      	ands	r3, r1
 8000bdc:	f043 6380 	orr.w	r3, r3, #67108864	@ 0x4000000
 8000be0:	6053      	str	r3, [r2, #4]
 8000be2:	4770      	bx	lr
 8000be4:	40021000 	.word	0x40021000
 8000be8:	f8ffc0fc 	.word	0xf8ffc0fc

08000bec <_Z33ALTERNATIVE_FUNCTION_CLOCK_ENABLEv>:
 8000bec:	4a02      	ldr	r2, [pc, #8]	@ (8000bf8 <_Z33ALTERNATIVE_FUNCTION_CLOCK_ENABLEv+0xc>)
 8000bee:	6993      	ldr	r3, [r2, #24]
 8000bf0:	f043 0301 	orr.w	r3, r3, #1
 8000bf4:	6193      	str	r3, [r2, #24]
 8000bf6:	4770      	bx	lr
 8000bf8:	40021000 	.word	0x40021000

08000bfc <_Z15PA_CLOCK_ENABLEv>:
 8000bfc:	4a02      	ldr	r2, [pc, #8]	@ (8000c08 <_Z15PA_CLOCK_ENABLEv+0xc>)
 8000bfe:	6993      	ldr	r3, [r2, #24]
 8000c00:	f043 0304 	orr.w	r3, r3, #4
 8000c04:	6193      	str	r3, [r2, #24]
 8000c06:	4770      	bx	lr
 8000c08:	40021000 	.word	0x40021000

08000c0c <_Z15PB_CLOCK_ENABLEv>:
 8000c0c:	4a02      	ldr	r2, [pc, #8]	@ (8000c18 <_Z15PB_CLOCK_ENABLEv+0xc>)
 8000c0e:	6993      	ldr	r3, [r2, #24]
 8000c10:	f043 0308 	orr.w	r3, r3, #8
 8000c14:	6193      	str	r3, [r2, #24]
 8000c16:	4770      	bx	lr
 8000c18:	40021000 	.word	0x40021000

08000c1c <_Z15PC_CLOCK_ENABLEv>:
 8000c1c:	4a02      	ldr	r2, [pc, #8]	@ (8000c28 <_Z15PC_CLOCK_ENABLEv+0xc>)
 8000c1e:	6993      	ldr	r3, [r2, #24]
 8000c20:	f043 0310 	orr.w	r3, r3, #16
 8000c24:	6193      	str	r3, [r2, #24]
 8000c26:	4770      	bx	lr
 8000c28:	40021000 	.word	0x40021000

08000c2c <_Z9InitPortsv>:
 8000c2c:	b508      	push	{r3, lr}
 8000c2e:	f7ff ffdd 	bl	8000bec <_Z33ALTERNATIVE_FUNCTION_CLOCK_ENABLEv>
 8000c32:	f7ff ffe3 	bl	8000bfc <_Z15PA_CLOCK_ENABLEv>
 8000c36:	f7ff ffe9 	bl	8000c0c <_Z15PB_CLOCK_ENABLEv>
 8000c3a:	e8bd 4008 	ldmia.w	sp!, {r3, lr}
 8000c3e:	f7ff bfed 	b.w	8000c1c <_Z15PC_CLOCK_ENABLEv>

08000c42 <_ZN10LcdDrivers7SSD130617SimplePrintDriverIN3i2c11I2c400KHzSwELNS0_10ScreenTypeE0EE6GotoXYEhh>:
 8000c42:	7903      	ldrb	r3, [r0, #4]
 8000c44:	428b      	cmp	r3, r1
 8000c46:	d902      	bls.n	8000c4e <_ZN10LcdDrivers7SSD130617SimplePrintDriverIN3i2c11I2c400KHzSwELNS0_10ScreenTypeE0EE6GotoXYEhh+0xc>
 8000c48:	7943      	ldrb	r3, [r0, #5]
 8000c4a:	4293      	cmp	r3, r2
 8000c4c:	d802      	bhi.n	8000c54 <_ZN10LcdDrivers7SSD130617SimplePrintDriverIN3i2c11I2c400KHzSwELNS0_10ScreenTypeE0EE6GotoXYEhh+0x12>
 8000c4e:	2301      	movs	r3, #1
 8000c50:	70c3      	strb	r3, [r0, #3]
 8000c52:	4770      	bx	lr
 8000c54:	7181      	strb	r1, [r0, #6]
 8000c56:	71c2      	strb	r2, [r0, #7]
 8000c58:	4770      	bx	lr

08000c5a <_ZN10LcdDrivers7SSD13066DriverIN3i2c11I2c400KHzSwEE11SendCommandEPKh>:
 8000c5a:	b5f8      	push	{r3, r4, r5, r6, r7, lr}
 8000c5c:	460c      	mov	r4, r1
 8000c5e:	4606      	mov	r6, r0
 8000c60:	f814 7b01 	ldrb.w	r7, [r4], #1
 8000c64:	2500      	movs	r5, #0
 8000c66:	f7ff fbcf 	bl	8000408 <_ZN3i2c11I2c400KHzSw14StartConditionEv>
 8000c6a:	42bd      	cmp	r5, r7
 8000c6c:	d00a      	beq.n	8000c84 <_ZN10LcdDrivers7SSD13066DriverIN3i2c11I2c400KHzSwEE11SendCommandEPKh+0x2a>
 8000c6e:	7820      	ldrb	r0, [r4, #0]
 8000c70:	b90d      	cbnz	r5, 8000c76 <_ZN10LcdDrivers7SSD13066DriverIN3i2c11I2c400KHzSwEE11SendCommandEPKh+0x1c>
 8000c72:	7833      	ldrb	r3, [r6, #0]
 8000c74:	4318      	orrs	r0, r3
 8000c76:	2101      	movs	r1, #1
 8000c78:	3401      	adds	r4, #1
 8000c7a:	f7ff fbef 	bl	800045c <_ZN3i2c11I2c400KHzSw6TxByteEhb>
 8000c7e:	b128      	cbz	r0, 8000c8c <_ZN10LcdDrivers7SSD13066DriverIN3i2c11I2c400KHzSwEE11SendCommandEPKh+0x32>
 8000c80:	2301      	movs	r3, #1
 8000c82:	70f3      	strb	r3, [r6, #3]
 8000c84:	e8bd 40f8 	ldmia.w	sp!, {r3, r4, r5, r6, r7, lr}
 8000c88:	f7ff bbca 	b.w	8000420 <_ZN3i2c11I2c400KHzSw13StopConditionEv>
 8000c8c:	3501      	adds	r5, #1
 8000c8e:	b2ed      	uxtb	r5, r5
 8000c90:	e7eb      	b.n	8000c6a <_ZN10LcdDrivers7SSD13066DriverIN3i2c11I2c400KHzSwEE11SendCommandEPKh+0x10>
	...

08000c94 <_ZN10LcdDrivers7SSD130617SimplePrintDriverIN3i2c11I2c400KHzSwELNS0_10ScreenTypeE0EE5PrintEPKc>:
 8000c94:	e92d 41f3 	stmdb	sp!, {r0, r1, r4, r5, r6, r7, r8, lr}
 8000c98:	4b4c      	ldr	r3, [pc, #304]	@ (8000dcc <_ZN10LcdDrivers7SSD130617SimplePrintDriverIN3i2c11I2c400KHzSwELNS0_10ScreenTypeE0EE5PrintEPKc+0x138>)
 8000c9a:	460e      	mov	r6, r1
 8000c9c:	494c      	ldr	r1, [pc, #304]	@ (8000dd0 <_ZN10LcdDrivers7SSD130617SimplePrintDriverIN3i2c11I2c400KHzSwELNS0_10ScreenTypeE0EE5PrintEPKc+0x13c>)
 8000c9e:	9301      	str	r3, [sp, #4]
 8000ca0:	4604      	mov	r4, r0
 8000ca2:	f7ff ffda 	bl	8000c5a <_ZN10LcdDrivers7SSD13066DriverIN3i2c11I2c400KHzSwEE11SendCommandEPKh>
 8000ca6:	2301      	movs	r3, #1
 8000ca8:	461f      	mov	r7, r3
 8000caa:	3e01      	subs	r6, #1
 8000cac:	f816 2f01 	ldrb.w	r2, [r6, #1]!
 8000cb0:	b912      	cbnz	r2, 8000cb8 <_ZN10LcdDrivers7SSD130617SimplePrintDriverIN3i2c11I2c400KHzSwELNS0_10ScreenTypeE0EE5PrintEPKc+0x24>
 8000cb2:	b002      	add	sp, #8
 8000cb4:	e8bd 81f0 	ldmia.w	sp!, {r4, r5, r6, r7, r8, pc}
 8000cb8:	b393      	cbz	r3, 8000d20 <_ZN10LcdDrivers7SSD130617SimplePrintDriverIN3i2c11I2c400KHzSwELNS0_10ScreenTypeE0EE5PrintEPKc+0x8c>
 8000cba:	f894 8006 	ldrb.w	r8, [r4, #6]
 8000cbe:	f7ff fba3 	bl	8000408 <_ZN3i2c11I2c400KHzSw14StartConditionEv>
 8000cc2:	2101      	movs	r1, #1
 8000cc4:	7820      	ldrb	r0, [r4, #0]
 8000cc6:	f7ff fbc9 	bl	800045c <_ZN3i2c11I2c400KHzSw6TxByteEhb>
 8000cca:	2101      	movs	r1, #1
 8000ccc:	4605      	mov	r5, r0
 8000cce:	2080      	movs	r0, #128	@ 0x80
 8000cd0:	f7ff fbc4 	bl	800045c <_ZN3i2c11I2c400KHzSw6TxByteEhb>
 8000cd4:	ea4f 08c8 	mov.w	r8, r8, lsl #3
 8000cd8:	fa5f f888 	uxtb.w	r8, r8
 8000cdc:	2101      	movs	r1, #1
 8000cde:	4305      	orrs	r5, r0
 8000ce0:	f008 0008 	and.w	r0, r8, #8
 8000ce4:	f7ff fbba 	bl	800045c <_ZN3i2c11I2c400KHzSw6TxByteEhb>
 8000ce8:	b2ed      	uxtb	r5, r5
 8000cea:	2101      	movs	r1, #1
 8000cec:	4305      	orrs	r5, r0
 8000cee:	2080      	movs	r0, #128	@ 0x80
 8000cf0:	f7ff fbb4 	bl	800045c <_ZN3i2c11I2c400KHzSw6TxByteEhb>
 8000cf4:	b2ed      	uxtb	r5, r5
 8000cf6:	4305      	orrs	r5, r0
 8000cf8:	ea4f 1018 	mov.w	r0, r8, lsr #4
 8000cfc:	2101      	movs	r1, #1
 8000cfe:	f040 0010 	orr.w	r0, r0, #16
 8000d02:	f7ff fbab 	bl	800045c <_ZN3i2c11I2c400KHzSw6TxByteEhb>
 8000d06:	b2ed      	uxtb	r5, r5
 8000d08:	4305      	orrs	r5, r0
 8000d0a:	f7ff fb89 	bl	8000420 <_ZN3i2c11I2c400KHzSw13StopConditionEv>
 8000d0e:	f894 8007 	ldrb.w	r8, [r4, #7]
 8000d12:	78a3      	ldrb	r3, [r4, #2]
 8000d14:	b2ed      	uxtb	r5, r5
 8000d16:	ebb8 0fd3 	cmp.w	r8, r3, lsr #3
 8000d1a:	70e5      	strb	r5, [r4, #3]
 8000d1c:	d321      	bcc.n	8000d62 <_ZN10LcdDrivers7SSD130617SimplePrintDriverIN3i2c11I2c400KHzSwELNS0_10ScreenTypeE0EE5PrintEPKc+0xce>
 8000d1e:	70e7      	strb	r7, [r4, #3]
 8000d20:	7831      	ldrb	r1, [r6, #0]
 8000d22:	a801      	add	r0, sp, #4
 8000d24:	f7ff fac8 	bl	80002b8 <_ZNK4font12Font8x8Right13GetCharBitmapEh>
 8000d28:	4605      	mov	r5, r0
 8000d2a:	f7ff fb6d 	bl	8000408 <_ZN3i2c11I2c400KHzSw14StartConditionEv>
 8000d2e:	2101      	movs	r1, #1
 8000d30:	7820      	ldrb	r0, [r4, #0]
 8000d32:	f7ff fb93 	bl	800045c <_ZN3i2c11I2c400KHzSw6TxByteEhb>
 8000d36:	4680      	mov	r8, r0
 8000d38:	2101      	movs	r1, #1
 8000d3a:	2040      	movs	r0, #64	@ 0x40
 8000d3c:	f7ff fb8e 	bl	800045c <_ZN3i2c11I2c400KHzSw6TxByteEhb>
 8000d40:	f1b8 0f00 	cmp.w	r8, #0
 8000d44:	d127      	bne.n	8000d96 <_ZN10LcdDrivers7SSD130617SimplePrintDriverIN3i2c11I2c400KHzSwELNS0_10ScreenTypeE0EE5PrintEPKc+0x102>
 8000d46:	bb30      	cbnz	r0, 8000d96 <_ZN10LcdDrivers7SSD130617SimplePrintDriverIN3i2c11I2c400KHzSwELNS0_10ScreenTypeE0EE5PrintEPKc+0x102>
 8000d48:	f105 38ff 	add.w	r8, r5, #4294967295
 8000d4c:	3507      	adds	r5, #7
 8000d4e:	2101      	movs	r1, #1
 8000d50:	f818 0f01 	ldrb.w	r0, [r8, #1]!
 8000d54:	f7ff fb82 	bl	800045c <_ZN3i2c11I2c400KHzSw6TxByteEhb>
 8000d58:	b3a8      	cbz	r0, 8000dc6 <_ZN10LcdDrivers7SSD130617SimplePrintDriverIN3i2c11I2c400KHzSwELNS0_10ScreenTypeE0EE5PrintEPKc+0x132>
 8000d5a:	70e7      	strb	r7, [r4, #3]
 8000d5c:	f7ff fb60 	bl	8000420 <_ZN3i2c11I2c400KHzSw13StopConditionEv>
 8000d60:	e01c      	b.n	8000d9c <_ZN10LcdDrivers7SSD130617SimplePrintDriverIN3i2c11I2c400KHzSwELNS0_10ScreenTypeE0EE5PrintEPKc+0x108>
 8000d62:	f7ff fb51 	bl	8000408 <_ZN3i2c11I2c400KHzSw14StartConditionEv>
 8000d66:	2101      	movs	r1, #1
 8000d68:	7820      	ldrb	r0, [r4, #0]
 8000d6a:	f7ff fb77 	bl	800045c <_ZN3i2c11I2c400KHzSw6TxByteEhb>
 8000d6e:	2101      	movs	r1, #1
 8000d70:	4605      	mov	r5, r0
 8000d72:	2080      	movs	r0, #128	@ 0x80
 8000d74:	f7ff fb72 	bl	800045c <_ZN3i2c11I2c400KHzSw6TxByteEhb>
 8000d78:	4305      	orrs	r5, r0
 8000d7a:	f008 0007 	and.w	r0, r8, #7
 8000d7e:	2101      	movs	r1, #1
 8000d80:	f040 00b0 	orr.w	r0, r0, #176	@ 0xb0
 8000d84:	f7ff fb6a 	bl	800045c <_ZN3i2c11I2c400KHzSw6TxByteEhb>
 8000d88:	b2ed      	uxtb	r5, r5
 8000d8a:	4305      	orrs	r5, r0
 8000d8c:	b2ed      	uxtb	r5, r5
 8000d8e:	f7ff fb47 	bl	8000420 <_ZN3i2c11I2c400KHzSw13StopConditionEv>
 8000d92:	70e5      	strb	r5, [r4, #3]
 8000d94:	e7c4      	b.n	8000d20 <_ZN10LcdDrivers7SSD130617SimplePrintDriverIN3i2c11I2c400KHzSwELNS0_10ScreenTypeE0EE5PrintEPKc+0x8c>
 8000d96:	f7ff fb43 	bl	8000420 <_ZN3i2c11I2c400KHzSw13StopConditionEv>
 8000d9a:	70e7      	strb	r7, [r4, #3]
 8000d9c:	79a3      	ldrb	r3, [r4, #6]
 8000d9e:	7922      	ldrb	r2, [r4, #4]
 8000da0:	3301      	adds	r3, #1
 8000da2:	b2db      	uxtb	r3, r3
 8000da4:	429a      	cmp	r2, r3
 8000da6:	71a3      	strb	r3, [r4, #6]
 8000da8:	f04f 0300 	mov.w	r3, #0
 8000dac:	f63f af7e 	bhi.w	8000cac <_ZN10LcdDrivers7SSD130617SimplePrintDriverIN3i2c11I2c400KHzSwELNS0_10ScreenTypeE0EE5PrintEPKc+0x18>
 8000db0:	79e2      	ldrb	r2, [r4, #7]
 8000db2:	7961      	ldrb	r1, [r4, #5]
 8000db4:	3201      	adds	r2, #1
 8000db6:	b2d2      	uxtb	r2, r2
 8000db8:	4291      	cmp	r1, r2
 8000dba:	71a3      	strb	r3, [r4, #6]
 8000dbc:	71e2      	strb	r2, [r4, #7]
 8000dbe:	bf98      	it	ls
 8000dc0:	71e3      	strbls	r3, [r4, #7]
 8000dc2:	2301      	movs	r3, #1
 8000dc4:	e772      	b.n	8000cac <_ZN10LcdDrivers7SSD130617SimplePrintDriverIN3i2c11I2c400KHzSwELNS0_10ScreenTypeE0EE5PrintEPKc+0x18>
 8000dc6:	4545      	cmp	r5, r8
 8000dc8:	d1c1      	bne.n	8000d4e <_ZN10LcdDrivers7SSD130617SimplePrintDriverIN3i2c11I2c400KHzSwELNS0_10ScreenTypeE0EE5PrintEPKc+0xba>
 8000dca:	e7c7      	b.n	8000d5c <_ZN10LcdDrivers7SSD130617SimplePrintDriverIN3i2c11I2c400KHzSwELNS0_10ScreenTypeE0EE5PrintEPKc+0xc8>
 8000dcc:	0800110c 	.word	0x0800110c
 8000dd0:	08001944 	.word	0x08001944

08000dd4 <main>:
 8000dd4:	b58f      	push	{r0, r1, r2, r3, r7, lr}
 8000dd6:	4668      	mov	r0, sp
 8000dd8:	f7ff fef4 	bl	8000bc4 <_Z10InitClocksv>
 8000ddc:	f7ff ff26 	bl	8000c2c <_Z9InitPortsv>
 8000de0:	f7ff fa3e 	bl	8000260 <_ZN8ErrorLedC1Ev>
 8000de4:	2100      	movs	r1, #0
 8000de6:	4668      	mov	r0, sp
 8000de8:	f7ff fa40 	bl	800026c <_ZNK8ErrorLed9ShowErrorENS_9ErrorTypeE>
 8000dec:	2014      	movs	r0, #20
 8000dee:	f7ff f9f7 	bl	80001e0 <_ZN10DelayTimer13DelayMilliSecEt>
 8000df2:	a801      	add	r0, sp, #4
 8000df4:	f7ff fee0 	bl	8000bb8 <_ZN12PowerControlC1Ev>
 8000df8:	a801      	add	r0, sp, #4
 8000dfa:	f7ff feb7 	bl	8000b6c <_ZN12PowerControl9PowerHoldEv>
 8000dfe:	20c8      	movs	r0, #200	@ 0xc8
 8000e00:	f7ff f9ee 	bl	80001e0 <_ZN10DelayTimer13DelayMilliSecEt>
 8000e04:	f7ff fe0e 	bl	8000a24 <_ZN9LcdScreen7LcdInitEv>
 8000e08:	f7ff fe8c 	bl	8000b24 <_ZN9LcdScreen8LcdClearEv>
 8000e0c:	4877      	ldr	r0, [pc, #476]	@ (8000fec <main+0x218>)
 8000e0e:	f7ff fea4 	bl	8000b5a <_ZN9LcdScreen8LcdPrintEPc>
 8000e12:	4b77      	ldr	r3, [pc, #476]	@ (8000ff0 <main+0x21c>)
 8000e14:	2601      	movs	r6, #1
 8000e16:	9302      	str	r3, [sp, #8]
 8000e18:	f7ff fae0 	bl	80003dc <_ZN3i2c11I2c400KHzSw4InitEv>
 8000e1c:	f7ff fb00 	bl	8000420 <_ZN3i2c11I2c400KHzSw13StopConditionEv>
 8000e20:	4974      	ldr	r1, [pc, #464]	@ (8000ff4 <main+0x220>)
 8000e22:	a802      	add	r0, sp, #8
 8000e24:	f7ff ff19 	bl	8000c5a <_ZN10LcdDrivers7SSD13066DriverIN3i2c11I2c400KHzSwEE11SendCommandEPKh>
 8000e28:	4973      	ldr	r1, [pc, #460]	@ (8000ff8 <main+0x224>)
 8000e2a:	a802      	add	r0, sp, #8
 8000e2c:	f7ff ff15 	bl	8000c5a <_ZN10LcdDrivers7SSD13066DriverIN3i2c11I2c400KHzSwEE11SendCommandEPKh>
 8000e30:	4972      	ldr	r1, [pc, #456]	@ (8000ffc <main+0x228>)
 8000e32:	a802      	add	r0, sp, #8
 8000e34:	f7ff ff11 	bl	8000c5a <_ZN10LcdDrivers7SSD13066DriverIN3i2c11I2c400KHzSwEE11SendCommandEPKh>
 8000e38:	4971      	ldr	r1, [pc, #452]	@ (8001000 <main+0x22c>)
 8000e3a:	a802      	add	r0, sp, #8
 8000e3c:	f7ff ff0d 	bl	8000c5a <_ZN10LcdDrivers7SSD13066DriverIN3i2c11I2c400KHzSwEE11SendCommandEPKh>
 8000e40:	4970      	ldr	r1, [pc, #448]	@ (8001004 <main+0x230>)
 8000e42:	a802      	add	r0, sp, #8
 8000e44:	f7ff ff09 	bl	8000c5a <_ZN10LcdDrivers7SSD13066DriverIN3i2c11I2c400KHzSwEE11SendCommandEPKh>
 8000e48:	496f      	ldr	r1, [pc, #444]	@ (8001008 <main+0x234>)
 8000e4a:	a802      	add	r0, sp, #8
 8000e4c:	f7ff ff05 	bl	8000c5a <_ZN10LcdDrivers7SSD13066DriverIN3i2c11I2c400KHzSwEE11SendCommandEPKh>
 8000e50:	f44f 6301 	mov.w	r3, #2064	@ 0x810
 8000e54:	4f6d      	ldr	r7, [pc, #436]	@ (800100c <main+0x238>)
 8000e56:	9303      	str	r3, [sp, #12]
 8000e58:	2200      	movs	r2, #0
 8000e5a:	a802      	add	r0, sp, #8
 8000e5c:	4611      	mov	r1, r2
 8000e5e:	f7ff fef0 	bl	8000c42 <_ZN10LcdDrivers7SSD130617SimplePrintDriverIN3i2c11I2c400KHzSwELNS0_10ScreenTypeE0EE6GotoXYEhh>
 8000e62:	2205      	movs	r2, #5
 8000e64:	2108      	movs	r1, #8
 8000e66:	f243 0039 	movw	r0, #12345	@ 0x3039
 8000e6a:	f7ff fbc3 	bl	80005f4 <_ZN8intToStr5ToDecItEEPKcT_hh>
 8000e6e:	4601      	mov	r1, r0
 8000e70:	a802      	add	r0, sp, #8
 8000e72:	f7ff ff0f 	bl	8000c94 <_ZN10LcdDrivers7SSD130617SimplePrintDriverIN3i2c11I2c400KHzSwELNS0_10ScreenTypeE0EE5PrintEPKc>
 8000e76:	2201      	movs	r2, #1
 8000e78:	2100      	movs	r1, #0
 8000e7a:	a802      	add	r0, sp, #8
 8000e7c:	f7ff fee1 	bl	8000c42 <_ZN10LcdDrivers7SSD130617SimplePrintDriverIN3i2c11I2c400KHzSwELNS0_10ScreenTypeE0EE6GotoXYEhh>
 8000e80:	2205      	movs	r2, #5
 8000e82:	2108      	movs	r1, #8
 8000e84:	f240 40d2 	movw	r0, #1234	@ 0x4d2
 8000e88:	f7ff fbb4 	bl	80005f4 <_ZN8intToStr5ToDecItEEPKcT_hh>
 8000e8c:	4601      	mov	r1, r0
 8000e8e:	a802      	add	r0, sp, #8
 8000e90:	f7ff ff00 	bl	8000c94 <_ZN10LcdDrivers7SSD130617SimplePrintDriverIN3i2c11I2c400KHzSwELNS0_10ScreenTypeE0EE5PrintEPKc>
 8000e94:	2202      	movs	r2, #2
 8000e96:	2100      	movs	r1, #0
 8000e98:	a802      	add	r0, sp, #8
 8000e9a:	f7ff fed2 	bl	8000c42 <_ZN10LcdDrivers7SSD130617SimplePrintDriverIN3i2c11I2c400KHzSwELNS0_10ScreenTypeE0EE6GotoXYEhh>
 8000e9e:	2205      	movs	r2, #5
 8000ea0:	2108      	movs	r1, #8
 8000ea2:	207b      	movs	r0, #123	@ 0x7b
 8000ea4:	f7ff fba6 	bl	80005f4 <_ZN8intToStr5ToDecItEEPKcT_hh>
 8000ea8:	4601      	mov	r1, r0
 8000eaa:	a802      	add	r0, sp, #8
 8000eac:	f7ff fef2 	bl	8000c94 <_ZN10LcdDrivers7SSD130617SimplePrintDriverIN3i2c11I2c400KHzSwELNS0_10ScreenTypeE0EE5PrintEPKc>
 8000eb0:	2203      	movs	r2, #3
 8000eb2:	2100      	movs	r1, #0
 8000eb4:	a802      	add	r0, sp, #8
 8000eb6:	f7ff fec4 	bl	8000c42 <_ZN10LcdDrivers7SSD130617SimplePrintDriverIN3i2c11I2c400KHzSwELNS0_10ScreenTypeE0EE6GotoXYEhh>
 8000eba:	2205      	movs	r2, #5
 8000ebc:	2108      	movs	r1, #8
 8000ebe:	200c      	movs	r0, #12
 8000ec0:	f7ff fb98 	bl	80005f4 <_ZN8intToStr5ToDecItEEPKcT_hh>
 8000ec4:	4601      	mov	r1, r0
 8000ec6:	a802      	add	r0, sp, #8
 8000ec8:	f7ff fee4 	bl	8000c94 <_ZN10LcdDrivers7SSD130617SimplePrintDriverIN3i2c11I2c400KHzSwELNS0_10ScreenTypeE0EE5PrintEPKc>
 8000ecc:	2204      	movs	r2, #4
 8000ece:	2100      	movs	r1, #0
 8000ed0:	a802      	add	r0, sp, #8
 8000ed2:	f7ff feb6 	bl	8000c42 <_ZN10LcdDrivers7SSD130617SimplePrintDriverIN3i2c11I2c400KHzSwELNS0_10ScreenTypeE0EE6GotoXYEhh>
 8000ed6:	2205      	movs	r2, #5
 8000ed8:	2108      	movs	r1, #8
 8000eda:	2001      	movs	r0, #1
 8000edc:	f7ff fb8a 	bl	80005f4 <_ZN8intToStr5ToDecItEEPKcT_hh>
 8000ee0:	4601      	mov	r1, r0
 8000ee2:	a802      	add	r0, sp, #8
 8000ee4:	f7ff fed6 	bl	8000c94 <_ZN10LcdDrivers7SSD130617SimplePrintDriverIN3i2c11I2c400KHzSwELNS0_10ScreenTypeE0EE5PrintEPKc>
 8000ee8:	2205      	movs	r2, #5
 8000eea:	2100      	movs	r1, #0
 8000eec:	a802      	add	r0, sp, #8
 8000eee:	f7ff fea8 	bl	8000c42 <_ZN10LcdDrivers7SSD130617SimplePrintDriverIN3i2c11I2c400KHzSwELNS0_10ScreenTypeE0EE6GotoXYEhh>
 8000ef2:	2205      	movs	r2, #5
 8000ef4:	2108      	movs	r1, #8
 8000ef6:	2000      	movs	r0, #0
 8000ef8:	f7ff fb7c 	bl	80005f4 <_ZN8intToStr5ToDecItEEPKcT_hh>
 8000efc:	4601      	mov	r1, r0
 8000efe:	a802      	add	r0, sp, #8
 8000f00:	f7ff fec8 	bl	8000c94 <_ZN10LcdDrivers7SSD130617SimplePrintDriverIN3i2c11I2c400KHzSwELNS0_10ScreenTypeE0EE5PrintEPKc>
 8000f04:	2206      	movs	r2, #6
 8000f06:	2100      	movs	r1, #0
 8000f08:	a802      	add	r0, sp, #8
 8000f0a:	f7ff fe9a 	bl	8000c42 <_ZN10LcdDrivers7SSD130617SimplePrintDriverIN3i2c11I2c400KHzSwELNS0_10ScreenTypeE0EE6GotoXYEhh>
 8000f0e:	2205      	movs	r2, #5
 8000f10:	2115      	movs	r1, #21
 8000f12:	f04f 30ff 	mov.w	r0, #4294967295
 8000f16:	f7ff fbf9 	bl	800070c <_ZN8intToStr5ToDecIsEEPKcT_hh>
 8000f1a:	4601      	mov	r1, r0
 8000f1c:	a802      	add	r0, sp, #8
 8000f1e:	f7ff feb9 	bl	8000c94 <_ZN10LcdDrivers7SSD130617SimplePrintDriverIN3i2c11I2c400KHzSwELNS0_10ScreenTypeE0EE5PrintEPKc>
 8000f22:	2001      	movs	r0, #1
 8000f24:	f7ff f968 	bl	80001f8 <_ZN10DelayTimer8DelaySecEt>
 8000f28:	4639      	mov	r1, r7
 8000f2a:	a802      	add	r0, sp, #8
 8000f2c:	f7ff fe95 	bl	8000c5a <_ZN10LcdDrivers7SSD13066DriverIN3i2c11I2c400KHzSwEE11SendCommandEPKh>
 8000f30:	f89d 4009 	ldrb.w	r4, [sp, #9]
 8000f34:	f89d 800a 	ldrb.w	r8, [sp, #10]
 8000f38:	f7ff fa66 	bl	8000408 <_ZN3i2c11I2c400KHzSw14StartConditionEv>
 8000f3c:	f89d 5008 	ldrb.w	r5, [sp, #8]
 8000f40:	2101      	movs	r1, #1
 8000f42:	4628      	mov	r0, r5
 8000f44:	f7ff fa8a 	bl	800045c <_ZN3i2c11I2c400KHzSw6TxByteEhb>
 8000f48:	2101      	movs	r1, #1
 8000f4a:	2000      	movs	r0, #0
 8000f4c:	f7ff fa86 	bl	800045c <_ZN3i2c11I2c400KHzSw6TxByteEhb>
 8000f50:	2101      	movs	r1, #1
 8000f52:	2021      	movs	r0, #33	@ 0x21
 8000f54:	f7ff fa82 	bl	800045c <_ZN3i2c11I2c400KHzSw6TxByteEhb>
 8000f58:	2101      	movs	r1, #1
 8000f5a:	2000      	movs	r0, #0
 8000f5c:	f7ff fa7e 	bl	800045c <_ZN3i2c11I2c400KHzSw6TxByteEhb>
 8000f60:	1e60      	subs	r0, r4, #1
 8000f62:	2101      	movs	r1, #1
 8000f64:	f000 007f 	and.w	r0, r0, #127	@ 0x7f
 8000f68:	f7ff fa78 	bl	800045c <_ZN3i2c11I2c400KHzSw6TxByteEhb>
 8000f6c:	f7ff fa58 	bl	8000420 <_ZN3i2c11I2c400KHzSw13StopConditionEv>
 8000f70:	f7ff fa4a 	bl	8000408 <_ZN3i2c11I2c400KHzSw14StartConditionEv>
 8000f74:	2101      	movs	r1, #1
 8000f76:	4628      	mov	r0, r5
 8000f78:	f7ff fa70 	bl	800045c <_ZN3i2c11I2c400KHzSw6TxByteEhb>
 8000f7c:	2101      	movs	r1, #1
 8000f7e:	2000      	movs	r0, #0
 8000f80:	f7ff fa6c 	bl	800045c <_ZN3i2c11I2c400KHzSw6TxByteEhb>
 8000f84:	2101      	movs	r1, #1
 8000f86:	2022      	movs	r0, #34	@ 0x22
 8000f88:	f7ff fa68 	bl	800045c <_ZN3i2c11I2c400KHzSw6TxByteEhb>
 8000f8c:	2101      	movs	r1, #1
 8000f8e:	2000      	movs	r0, #0
 8000f90:	f7ff fa64 	bl	800045c <_ZN3i2c11I2c400KHzSw6TxByteEhb>
 8000f94:	ea4f 00d8 	mov.w	r0, r8, lsr #3
 8000f98:	3801      	subs	r0, #1
 8000f9a:	2101      	movs	r1, #1
 8000f9c:	f000 0007 	and.w	r0, r0, #7
 8000fa0:	f7ff fa5c 	bl	800045c <_ZN3i2c11I2c400KHzSw6TxByteEhb>
 8000fa4:	f7ff fa3c 	bl	8000420 <_ZN3i2c11I2c400KHzSw13StopConditionEv>
 8000fa8:	f7ff fa2e 	bl	8000408 <_ZN3i2c11I2c400KHzSw14StartConditionEv>
 8000fac:	2101      	movs	r1, #1
 8000fae:	4628      	mov	r0, r5
 8000fb0:	f7ff fa54 	bl	800045c <_ZN3i2c11I2c400KHzSw6TxByteEhb>
 8000fb4:	4605      	mov	r5, r0
 8000fb6:	fb08 f404 	mul.w	r4, r8, r4
 8000fba:	2101      	movs	r1, #1
 8000fbc:	2040      	movs	r0, #64	@ 0x40
 8000fbe:	08e4      	lsrs	r4, r4, #3
 8000fc0:	f7ff fa4c 	bl	800045c <_ZN3i2c11I2c400KHzSw6TxByteEhb>
 8000fc4:	b905      	cbnz	r5, 8000fc8 <main+0x1f4>
 8000fc6:	b108      	cbz	r0, 8000fcc <main+0x1f8>
 8000fc8:	f88d 600b 	strb.w	r6, [sp, #11]
 8000fcc:	2500      	movs	r5, #0
 8000fce:	b2ab      	uxth	r3, r5
 8000fd0:	42a3      	cmp	r3, r4
 8000fd2:	d302      	bcc.n	8000fda <main+0x206>
 8000fd4:	f7ff fa24 	bl	8000420 <_ZN3i2c11I2c400KHzSw13StopConditionEv>
 8000fd8:	e73e      	b.n	8000e58 <main+0x84>
 8000fda:	2101      	movs	r1, #1
 8000fdc:	2000      	movs	r0, #0
 8000fde:	f7ff fa3d 	bl	800045c <_ZN3i2c11I2c400KHzSw6TxByteEhb>
 8000fe2:	b108      	cbz	r0, 8000fe8 <main+0x214>
 8000fe4:	f88d 600b 	strb.w	r6, [sp, #11]
 8000fe8:	3501      	adds	r5, #1
 8000fea:	e7f0      	b.n	8000fce <main+0x1fa>
 8000fec:	08001918 	.word	0x08001918
 8000ff0:	00408078 	.word	0x00408078
 8000ff4:	08001962 	.word	0x08001962
 8000ff8:	0800195e 	.word	0x0800195e
 8000ffc:	0800195a 	.word	0x0800195a
 8001000:	08001956 	.word	0x08001956
 8001004:	08001952 	.word	0x08001952
 8001008:	0800194e 	.word	0x0800194e
 800100c:	08001949 	.word	0x08001949

08001010 <_GLOBAL__sub_I__ZN7sprites13batterySpriteE>:
 8001010:	4b05      	ldr	r3, [pc, #20]	@ (8001028 <_GLOBAL__sub_I__ZN7sprites13batterySpriteE+0x18>)
 8001012:	4a06      	ldr	r2, [pc, #24]	@ (800102c <_GLOBAL__sub_I__ZN7sprites13batterySpriteE+0x1c>)
 8001014:	601a      	str	r2, [r3, #0]
 8001016:	4a06      	ldr	r2, [pc, #24]	@ (8001030 <_GLOBAL__sub_I__ZN7sprites13batterySpriteE+0x20>)
 8001018:	605a      	str	r2, [r3, #4]
 800101a:	4b06      	ldr	r3, [pc, #24]	@ (8001034 <_GLOBAL__sub_I__ZN7sprites13batterySpriteE+0x24>)
 800101c:	4a06      	ldr	r2, [pc, #24]	@ (8001038 <_GLOBAL__sub_I__ZN7sprites13batterySpriteE+0x28>)
 800101e:	601a      	str	r2, [r3, #0]
 8001020:	4a06      	ldr	r2, [pc, #24]	@ (800103c <_GLOBAL__sub_I__ZN7sprites13batterySpriteE+0x2c>)
 8001022:	605a      	str	r2, [r3, #4]
 8001024:	4770      	bx	lr
 8001026:	bf00      	nop
 8001028:	20000040 	.word	0x20000040
 800102c:	00040107 	.word	0x00040107
 8001030:	08001940 	.word	0x08001940
 8001034:	20000038 	.word	0x20000038
 8001038:	00090312 	.word	0x00090312
 800103c:	08001923 	.word	0x08001923

08001040 <Reset_Handler>:
 8001040:	480d      	ldr	r0, [pc, #52]	@ (8001078 <LoopForever+0x2>)
 8001042:	4685      	mov	sp, r0
 8001044:	f7ff f89d 	bl	8000182 <SystemInit>
 8001048:	480c      	ldr	r0, [pc, #48]	@ (800107c <LoopForever+0x6>)
 800104a:	490d      	ldr	r1, [pc, #52]	@ (8001080 <LoopForever+0xa>)
 800104c:	4a0d      	ldr	r2, [pc, #52]	@ (8001084 <LoopForever+0xe>)
 800104e:	2300      	movs	r3, #0
 8001050:	e002      	b.n	8001058 <LoopCopyDataInit>

08001052 <CopyDataInit>:
 8001052:	58d4      	ldr	r4, [r2, r3]
 8001054:	50c4      	str	r4, [r0, r3]
 8001056:	3304      	adds	r3, #4

08001058 <LoopCopyDataInit>:
 8001058:	18c4      	adds	r4, r0, r3
 800105a:	428c      	cmp	r4, r1
 800105c:	d3f9      	bcc.n	8001052 <CopyDataInit>
 800105e:	4a0a      	ldr	r2, [pc, #40]	@ (8001088 <LoopForever+0x12>)
 8001060:	4c0a      	ldr	r4, [pc, #40]	@ (800108c <LoopForever+0x16>)
 8001062:	2300      	movs	r3, #0
 8001064:	e001      	b.n	800106a <LoopFillZerobss>

08001066 <FillZerobss>:
 8001066:	6013      	str	r3, [r2, #0]
 8001068:	3204      	adds	r2, #4

0800106a <LoopFillZerobss>:
 800106a:	42a2      	cmp	r2, r4
 800106c:	d3fb      	bcc.n	8001066 <FillZerobss>
 800106e:	f000 f819 	bl	80010a4 <__libc_init_array>
 8001072:	f7ff feaf 	bl	8000dd4 <main>

08001076 <LoopForever>:
 8001076:	e7fe      	b.n	8001076 <LoopForever>
 8001078:	20005000 	.word	0x20005000
 800107c:	20000000 	.word	0x20000000
 8001080:	20000000 	.word	0x20000000
 8001084:	08001978 	.word	0x08001978
 8001088:	20000000 	.word	0x20000000
 800108c:	20000048 	.word	0x20000048

08001090 <ADC1_2_IRQHandler>:
 8001090:	e7fe      	b.n	8001090 <ADC1_2_IRQHandler>

08001092 <memset>:
 8001092:	4603      	mov	r3, r0
 8001094:	4402      	add	r2, r0
 8001096:	4293      	cmp	r3, r2
 8001098:	d100      	bne.n	800109c <memset+0xa>
 800109a:	4770      	bx	lr
 800109c:	f803 1b01 	strb.w	r1, [r3], #1
 80010a0:	e7f9      	b.n	8001096 <memset+0x4>
	...

080010a4 <__libc_init_array>:
 80010a4:	b570      	push	{r4, r5, r6, lr}
 80010a6:	2600      	movs	r6, #0
 80010a8:	4d0c      	ldr	r5, [pc, #48]	@ (80010dc <__libc_init_array+0x38>)
 80010aa:	4c0d      	ldr	r4, [pc, #52]	@ (80010e0 <__libc_init_array+0x3c>)
 80010ac:	1b64      	subs	r4, r4, r5
 80010ae:	10a4      	asrs	r4, r4, #2
 80010b0:	42a6      	cmp	r6, r4
 80010b2:	d109      	bne.n	80010c8 <__libc_init_array+0x24>
 80010b4:	f000 f81a 	bl	80010ec <_init>
 80010b8:	2600      	movs	r6, #0
 80010ba:	4d0a      	ldr	r5, [pc, #40]	@ (80010e4 <__libc_init_array+0x40>)
 80010bc:	4c0a      	ldr	r4, [pc, #40]	@ (80010e8 <__libc_init_array+0x44>)
 80010be:	1b64      	subs	r4, r4, r5
 80010c0:	10a4      	asrs	r4, r4, #2
 80010c2:	42a6      	cmp	r6, r4
 80010c4:	d105      	bne.n	80010d2 <__libc_init_array+0x2e>
 80010c6:	bd70      	pop	{r4, r5, r6, pc}
 80010c8:	f855 3b04 	ldr.w	r3, [r5], #4
 80010cc:	4798      	blx	r3
 80010ce:	3601      	adds	r6, #1
 80010d0:	e7ee      	b.n	80010b0 <__libc_init_array+0xc>
 80010d2:	f855 3b04 	ldr.w	r3, [r5], #4
 80010d6:	4798      	blx	r3
 80010d8:	3601      	adds	r6, #1
 80010da:	e7f2      	b.n	80010c2 <__libc_init_array+0x1e>
 80010dc:	08001968 	.word	0x08001968
 80010e0:	08001968 	.word	0x08001968
 80010e4:	08001968 	.word	0x08001968
 80010e8:	08001974 	.word	0x08001974

080010ec <_init>:
 80010ec:	b5f8      	push	{r3, r4, r5, r6, r7, lr}
 80010ee:	bf00      	nop
 80010f0:	bcf8      	pop	{r3, r4, r5, r6, r7}
 80010f2:	bc08      	pop	{r3}
 80010f4:	469e      	mov	lr, r3
 80010f6:	4770      	bx	lr

080010f8 <_fini>:
 80010f8:	b5f8      	push	{r3, r4, r5, r6, r7, lr}
 80010fa:	bf00      	nop
 80010fc:	bcf8      	pop	{r3, r4, r5, r6, r7}
 80010fe:	bc08      	pop	{r3}
 8001100:	469e      	mov	lr, r3
 8001102:	4770      	bx	lr
